 iconv

 Timestamp is 562d3915 (Sun Oct 25 20:18:29 2015)

 Preferred load address is 10000000

 Start         Length     Name                   Class
 0001:00000000 00000036H .text$di                CODE
 0001:00000040 0001f32eH .text$mn                CODE
 0001:0001f36e 00000000H .text$x                 CODE
 0001:0001f370 00000001H .text$yd                CODE
 0002:00000000 00000104H .idata$5                DATA
 0002:00000104 00000004H .CRT$XCA                DATA
 0002:00000108 00000010H .CRT$XCU                DATA
 0002:00000118 00000004H .CRT$XCZ                DATA
 0002:0000011c 00000004H .CRT$XIA                DATA
 0002:00000120 00000010H .CRT$XIC                DATA
 0002:00000130 00000004H .CRT$XIZ                DATA
 0002:00000134 00000004H .CRT$XPA                DATA
 0002:00000138 00000008H .CRT$XPX                DATA
 0002:00000140 00000004H .CRT$XPXA               DATA
 0002:00000144 00000004H .CRT$XPZ                DATA
 0002:00000148 00000004H .CRT$XTA                DATA
 0002:0000014c 00000004H .CRT$XTZ                DATA
 0002:00000150 000e1008H .rdata                  DATA
 0002:000e1158 000000a0H .rdata$debug            DATA
 0002:000e11f8 000000dcH .rdata$r                DATA
 0002:000e12e0 0000000cH .rdata$sxdata           DATA
 0002:000e12ec 00000004H .rtc$IAA                DATA
 0002:000e12f0 00000004H .rtc$IZZ                DATA
 0002:000e12f4 00000004H .rtc$TAA                DATA
 0002:000e12f8 00000004H .rtc$TZZ                DATA
 0002:000e1300 0000038cH .xdata$x                DATA
 0002:000e168c 00000020H .didat$2                DATA
 0002:000e16ac 00000020H .didat$3                DATA
 0002:000e16cc 00000094H .didat$4                DATA
 0002:000e1760 0000092eH .didat$6                DATA
 0002:000e2090 00000094H .didat$7                DATA
 0002:000e2130 00000051H .edata                  DATA
 0002:000e2184 00000014H .idata$2                DATA
 0002:000e2198 00000014H .idata$3                DATA
 0002:000e21ac 00000104H .idata$4                DATA
 0002:000e22b0 000004a8H .idata$6                DATA
 0003:00000000 00001250H .data                   DATA
 0003:00001250 00000050H .data$r                 DATA
 0003:000012a0 00000094H .didat$5                DATA
 0003:00001340 00001ee0H .bss                    DATA
 0004:00000000 00000058H .rsrc$01                DATA
 0004:00000060 00000180H .rsrc$02                DATA

  Address         Publics by Value              Rva+Base       Lib:Object

 0000:00000000       __except_list              00000000     <absolute>
 0000:00000000       ___guard_fids_count        00000000     <absolute>
 0000:00000000       ___guard_flags             00000000     <absolute>
 0000:00000000       ___guard_fids_table        00000000     <absolute>
 0000:00000003       ___safe_se_handler_count   00000003     <absolute>
 0000:00000000       ___ImageBase               10000000     <linker-defined>
 0001:000000e0       ?New@?$Factory@VFunctionTemplate@v8@@@imp@Nan@@SA?AV?$Local@VFunctionTemplate@v8@@@v8@@P6AXABV?$FunctionCallbackInfo@VValue@v8@@@3@@ZV?$Local@VValue@v8@@@5@V?$Local@VSignature@v8@@@5@@Z 100010e0 f i binding.obj
 0001:00000200       ?WeakCallback@Iconv@?A0x81a5d862@@SAXABV?$WeakCallbackInfo@UIconv@?A0x81a5d862@@@Nan@@@Z 10001200 f i binding.obj
 0001:00000220       ?Initialize@Iconv@?A0x81a5d862@@SAXV?$Local@VObject@v8@@@v8@@@Z 10001220 f i binding.obj
 0001:000004c0       ?Make@Iconv@?A0x81a5d862@@SAXABV?$FunctionCallbackInfo@VValue@v8@@@Nan@@@Z 100014c0 f i binding.obj
 0001:00000620       ?Convert@Iconv@?A0x81a5d862@@SAXABV?$FunctionCallbackInfo@VValue@v8@@@Nan@@@Z 10001620 f i binding.obj
 0001:00000900       ?invokeparameter@?$WeakCallbackInfo@UIconv@?A0x81a5d862@@@Nan@@CAXABV?$WeakCallbackInfo@V?$WeakCallbackInfo@UIconv@?A0x81a5d862@@@Nan@@@v8@@@Z 10001900 f i binding.obj
 0001:00013990       _aliases_lookup            10014990 f   libiconv:iconv.obj
 0001:00013a70       _libiconv_open             10014a70 f   libiconv:iconv.obj
 0001:00013d37       __imp_load_?Data@Buffer@node@@YAPADV?$Local@VObject@v8@@@v8@@@Z 10014d37 f   node:node.exe
 0001:00013d41       __tailMerge_node_exe       10014d41 f i node:node.exe
 0001:00013d52       __imp_load__node_module_register 10014d52 f   node:node.exe
 0001:00013d5c       __imp_load_?ToLocalEmpty@V8@v8@@CAXXZ 10014d5c f   node:node.exe
 0001:00013d66       __imp_load_?MakeWeak@V8@v8@@CAXPAPAVObject@internal@2@PAXP6AXABV?$WeakCallbackInfo@X@2@@ZW4WeakCallbackType@2@@Z 10014d66 f   node:node.exe
 0001:00013d70       __imp_load_?DisposeGlobal@V8@v8@@CAXPAPAVObject@internal@2@@Z 10014d70 f   node:node.exe
 0001:00013d7a       __imp_load_?GlobalizeReference@V8@v8@@CAPAPAVObject@internal@2@PAVIsolate@42@PAPAV342@@Z 10014d7a f   node:node.exe
 0001:00013d84       __imp_load_?Escape@EscapableHandleScope@v8@@AAEPAPAVObject@internal@2@PAPAV342@@Z 10014d84 f   node:node.exe
 0001:00013d8e       __imp_load_??0EscapableHandleScope@v8@@QAE@PAVIsolate@1@@Z 10014d8e f   node:node.exe
 0001:00013d98       __imp_load_?Uint32Value@Value@v8@@QBEIXZ 10014d98 f   node:node.exe
 0001:00013da2       __imp_load_?BooleanValue@Value@v8@@QBE_NXZ 10014da2 f   node:node.exe
 0001:00013dac       __imp_load_?ToInteger@Value@v8@@QBE?AV?$MaybeLocal@VInteger@v8@@@2@V?$Local@VContext@v8@@@2@@Z 10014dac f   node:node.exe
 0001:00013db6       __imp_load_?GetFunction@FunctionTemplate@v8@@QAE?AV?$Local@VFunction@v8@@@2@XZ 10014db6 f   node:node.exe
 0001:00013dc0       __imp_load_?New@FunctionTemplate@v8@@SA?AV?$Local@VFunctionTemplate@v8@@@2@PAVIsolate@2@P6AXABV?$FunctionCallbackInfo@VValue@v8@@@2@@ZV?$Local@VValue@v8@@@2@V?$Local@VSignature@v8@@@2@H@Z 10014dc0 f   node:node.exe
 0001:00013dca       __imp_load_??1Utf8Value@String@v8@@QAE@XZ 10014dca f   node:node.exe
 0001:00013dd4       __imp_load_??0Utf8Value@String@v8@@QAE@V?$Local@VValue@v8@@@2@@Z 10014dd4 f   node:node.exe
 0001:00013dde       __imp_load_?NewFromUtf8@String@v8@@SA?AV?$MaybeLocal@VString@v8@@@2@PAVIsolate@2@PBDW4NewStringType@2@H@Z 10014dde f   node:node.exe
 0001:00013de8       __imp_load_?CreateHandle@HandleScope@v8@@KAPAPAVObject@internal@2@PAVIsolate@42@PAV342@@Z 10014de8 f   node:node.exe
 0001:00013df2       __imp_load_?CreateHandle@HandleScope@v8@@CAPAPAVObject@internal@2@PAVHeapObject@42@PAV342@@Z 10014df2 f   node:node.exe
 0001:00013dfc       __imp_load_??1HandleScope@v8@@QAE@XZ 10014dfc f   node:node.exe
 0001:00013e06       __imp_load_?SlowGetAlignedPointerFromInternalField@Object@v8@@AAEPAXH@Z 10014e06 f   node:node.exe
 0001:00013e10       __imp_load_?SlowGetInternalField@Object@v8@@AAE?AV?$Local@VValue@v8@@@2@H@Z 10014e10 f   node:node.exe
 0001:00013e1a       __imp_load_?SetAlignedPointerInInternalField@Object@v8@@QAEXHPAX@Z 10014e1a f   node:node.exe
 0001:00013e24       __imp_load_?SetInternalField@Object@v8@@QAEXHV?$Local@VValue@v8@@@2@@Z 10014e24 f   node:node.exe
 0001:00013e2e       __imp_load_?Set@Object@v8@@QAE_NV?$Local@VValue@v8@@@2@0@Z 10014e2e f   node:node.exe
 0001:00013e38       __imp_load_?Set@Object@v8@@QAE_NIV?$Local@VValue@v8@@@2@@Z 10014e38 f   node:node.exe
 0001:00013e42       __imp_load_?SetInternalFieldCount@ObjectTemplate@v8@@QAEXH@Z 10014e42 f   node:node.exe
 0001:00013e4c       __imp_load_?NewInstance@ObjectTemplate@v8@@QAE?AV?$Local@VObject@v8@@@2@XZ 10014e4c f   node:node.exe
 0001:00013e56       __imp_load_?NewInstance@ObjectTemplate@v8@@QAE?AV?$MaybeLocal@VObject@v8@@@2@V?$Local@VContext@v8@@@2@@Z 10014e56 f   node:node.exe
 0001:00013e60       __imp_load_?New@ObjectTemplate@v8@@SA?AV?$Local@VObjectTemplate@v8@@@2@PAVIsolate@2@V?$Local@VFunctionTemplate@v8@@@2@@Z 10014e60 f   node:node.exe
 0001:00013e6a       __imp_load_?New@ObjectTemplate@v8@@SA?AV?$Local@VObjectTemplate@v8@@@2@XZ 10014e6a f   node:node.exe
 0001:00013e74       __imp_load_?NewFromUnsigned@Integer@v8@@SA?AV?$Local@VInteger@v8@@@2@PAVIsolate@2@I@Z 10014e74 f   node:node.exe
 0001:00013e7e       __imp_load_?New@Integer@v8@@SA?AV?$Local@VInteger@v8@@@2@PAVIsolate@2@H@Z 10014e7e f   node:node.exe
 0001:00013e88       __imp_load_?GetCurrentContext@Isolate@v8@@QAE?AV?$Local@VContext@v8@@@2@XZ 10014e88 f   node:node.exe
 0001:00013e92       __imp_load_?GetCurrent@Isolate@v8@@SAPAV12@XZ 10014e92 f   node:node.exe
 0001:00013e9c       __imp_load_?Value@External@v8@@QBEPAXXZ 10014e9c f   node:node.exe
 0001:00013ea6       __imp_load_?New@External@v8@@SA?AV?$Local@VExternal@v8@@@2@PAVIsolate@2@PAX@Z 10014ea6 f   node:node.exe
 0001:00013eb0       ??0bad_alloc@std@@QAE@ABV01@@Z 10014eb0 f i libcpmt:xthrow.obj
 0001:00013ecb       ??1bad_alloc@std@@UAE@XZ   10014ecb f i libcpmt:xthrow.obj
 0001:00013ed6       ??_Ebad_alloc@std@@UAEPAXI@Z 10014ed6 f i libcpmt:xthrow.obj
 0001:00013ed6       ??_Gbad_alloc@std@@UAEPAXI@Z 10014ed6 f i libcpmt:xthrow.obj
 0001:00013efb       @__security_check_cookie@4 10014efb f   LIBCMT:secchk.obj
 0001:00013f10       _memmove                   10014f10 f   LIBCMT:memmove.obj
 0001:00014554       ___doserrno                10015554 f   LIBCMT:dosmap.obj
 0001:00014567       __dosmaperr                10015567 f   LIBCMT:dosmap.obj
 0001:00014588       __errno                    10015588 f   LIBCMT:dosmap.obj
 0001:0001459b       __get_errno_from_oserr     1001559b f   LIBCMT:dosmap.obj
 0001:000145dc       ___onexitinit              100155dc f   LIBCMT:onexit.obj
 0001:0001460b       __onexit                   1001560b f   LIBCMT:onexit.obj
 0001:00014707       _atexit                    10015707 f   LIBCMT:onexit.obj
 0001:0001471c       ??3@YAXPAX@Z               1001571c f   LIBCMT:delete.obj
 0001:00014721       ??2@YAPAXI@Z               10015721 f   LIBCMT:new.obj
 0001:00014772       ??0_LocaleUpdate@@QAE@PAUlocaleinfo_struct@@@Z 10015772 f i LIBCMT:stricmp.obj
 0001:000147fa       ___ascii_stricmp           100157fa f   LIBCMT:stricmp.obj
 0001:00014833       __stricmp                  10015833 f   LIBCMT:stricmp.obj
 0001:0001487a       __stricmp_l                1001587a f   LIBCMT:stricmp.obj
 0001:0001490f       __CRT_INIT@12              1001590f f   LIBCMT:dllcrt0.obj
 0001:00014a81       __DllMainCRTStartup@12     10015a81 f   LIBCMT:dllcrt0.obj
 0001:00014bb2       ___DllXcptFilter           10015bb2 f   LIBCMT:dllcrt0.obj
 0001:00014bd7       _abort                     10015bd7 f   LIBCMT:abort.obj
 0001:00014c1a       _free                      10015c1a f   LIBCMT:free.obj
 0001:00014c52       _malloc                    10015c52 f   LIBCMT:malloc.obj
 0001:00014cf0       _memcpy                    10015cf0 f   LIBCMT:memcpy.obj
 0001:00015340       _strlen                    10016340 f   LIBCMT:strlen.obj
 0001:000153cb       __CxxThrowException@8      100163cb f   LIBCMT:throw.obj
 0001:0001542e       ?_CallMemberFunction0@@YGXPAX0@Z 1001642e f   LIBCMT:_trnsctrl_.obj
 0001:00015435       ??1type_info@@UAE@XZ       10016435 f   LIBCMT:typinfo.obj
 0001:00015443       ??_Gtype_info@@UAEPAXI@Z   10016443 f i LIBCMT:typinfo.obj
 0001:00015443       ??_Etype_info@@UAEPAXI@Z   10016443 f i LIBCMT:typinfo.obj
 0001:00015462       __fpmath                   10016462 f   LIBCMT:fpinit.obj
 0001:00015479       __cfltcvt_init             10016479 f   LIBCMT:fpinit.obj
 0001:000154d9       ??0exception@std@@QAE@ABQBDH@Z 100164d9 f   LIBCMT:stdexcpt.obj
 0001:000154f4       ??0exception@std@@QAE@ABV01@@Z 100164f4 f   LIBCMT:stdexcpt.obj
 0001:00015517       ??1exception@std@@UAE@XZ   10016517 f   LIBCMT:stdexcpt.obj
 0001:00015522       ??4exception@std@@QAEAAV01@ABV01@@Z 10016522 f   LIBCMT:stdexcpt.obj
 0001:00015555       ??_Gexception@std@@UAEPAXI@Z 10016555 f i LIBCMT:stdexcpt.obj
 0001:00015555       ??_Eexception@std@@UAEPAXI@Z 10016555 f i LIBCMT:stdexcpt.obj
 0001:0001557a       ?_Copy_str@exception@std@@AAEXPBD@Z 1001657a f   LIBCMT:stdexcpt.obj
 0001:000155b8       ?_Tidy@exception@std@@AAEXXZ 100165b8 f   LIBCMT:stdexcpt.obj
 0001:000155d4       ?what@exception@std@@UBEPBDXZ 100165d4 f   LIBCMT:stdexcpt.obj
 0001:000155e1       ___raise_securityfailure   100165e1 f   LIBCMT:gs_report.obj
 0001:0001561e       ___report_gsfailure        1001661e f   LIBCMT:gs_report.obj
 0001:00015719       ___isa_available_init      10016719 f   LIBCMT:cpu_disp.obj
 0001:00015892       __call_reportfault         10016892 f   LIBCMT:invarg.obj
 0001:000159b7       __initp_misc_invarg        100169b7 f   LIBCMT:invarg.obj
 0001:000159c4       __invalid_parameter        100169c4 f   LIBCMT:invarg.obj
 0001:000159ef       __invalid_parameter_noinfo 100169ef f   LIBCMT:invarg.obj
 0001:000159ff       __invoke_watson            100169ff f   LIBCMT:invarg.obj
 0001:00015a2a       __freefls@4                10016a2a f   LIBCMT:tidtable.obj
 0001:00015b5f       __freeptd                  10016b5f f   LIBCMT:tidtable.obj
 0001:00015b95       __getptd                   10016b95 f   LIBCMT:tidtable.obj
 0001:00015bad       __getptd_noexit            10016bad f   LIBCMT:tidtable.obj
 0001:00015c1c       __initptd                  10016c1c f   LIBCMT:tidtable.obj
 0001:00015ccf       __mtinit                   10016ccf f   LIBCMT:tidtable.obj
 0001:00015d45       __mtterm                   10016d45 f   LIBCMT:tidtable.obj
 0001:00015d62       _wcscat_s                  10016d62 f   LIBCMT:wcscat_s.obj
 0001:00015dce       _wcscpy_s                  10016dce f   LIBCMT:wcscpy_s.obj
 0001:00015e2a       _wcslen                    10016e2a f   LIBCMT:wcslen.obj
 0001:00015e43       ___crtCorExitProcess       10016e43 f   LIBCMT:crt0dat.obj
 0001:00015e77       ___crtExitProcess          10016e77 f   LIBCMT:crt0dat.obj
 0001:00015e8d       ___freeCrtMemory           10016e8d f   LIBCMT:crt0dat.obj
 0001:00015f9a       __amsg_exit                10016f9a f   LIBCMT:crt0dat.obj
 0001:00015fb6       __cexit                    10016fb6 f   LIBCMT:crt0dat.obj
 0001:00015fc5       __cinit                    10016fc5 f   LIBCMT:crt0dat.obj
 0001:00016049       __exit                     10017049 f   LIBCMT:crt0dat.obj
 0001:0001605d       __init_pointers            1001705d f   LIBCMT:crt0dat.obj
 0001:000160cb       __initterm_e               100170cb f   LIBCMT:crt0dat.obj
 0001:000160ed       __lockexit                 100170ed f   LIBCMT:crt0dat.obj
 0001:000160f6       __unlockexit               100170f6 f   LIBCMT:crt0dat.obj
 0001:0001622e       __set_error_mode           1001722e f   LIBCMT:errmode.obj
 0001:0001626e       ___initstdio               1001726e f   LIBCMT:_file.obj
 0001:000162e1       ___endstdio                100172e1 f   LIBCMT:_file.obj
 0001:00016308       __lock_file                10017308 f   LIBCMT:_file.obj
 0001:00016347       __lock_file2               10017347 f   LIBCMT:_file.obj
 0001:00016377       __unlock_file              10017377 f   LIBCMT:_file.obj
 0001:000163b1       __unlock_file2             100173b1 f   LIBCMT:_file.obj
 0001:000163de       __fflush_nolock            100173de f   LIBCMT:fflush.obj
 0001:00016424       __flush                    10017424 f   LIBCMT:fflush.obj
 0001:00016488       __flushall                 10017488 f   LIBCMT:fflush.obj
 0001:00016575       ___get_sigabrt             10017575 f   LIBCMT:winsig.obj
 0001:00016582       __initp_misc_winsig        10017582 f   LIBCMT:winsig.obj
 0001:0001659e       _raise                     1001759e f   LIBCMT:winsig.obj
 0001:00016793       ___crtMessageBoxW          10017793 f   LIBCMT:crtmboxw.obj
 0001:00016979       __FF_MSGBANNER             10017979 f   LIBCMT:crt0msg.obj
 0001:000169b2       __GET_RTERRMSG             100179b2 f   LIBCMT:crt0msg.obj
 0001:000169d6       __NMSG_WRITE               100179d6 f   LIBCMT:crt0msg.obj
 0001:00016b93       __msize                    10017b93 f   LIBCMT:msize.obj
 0001:00016bc4       __calloc_crt               10017bc4 f   LIBCMT:crtheap.obj
 0001:00016c0c       __malloc_crt               10017c0c f   LIBCMT:crtheap.obj
 0001:00016c53       __realloc_crt              10017c53 f   LIBCMT:crtheap.obj
 0001:00016ca0       __SEH_prolog4              10017ca0 f   LIBCMT:sehprolg4.obj
 0001:00016ce5       __SEH_epilog4              10017ce5 f   LIBCMT:sehprolg4.obj
 0001:00016d00       __except_handler4          10017d00 f   LIBCMT:chandler4.obj
 0001:00016e94       __initp_misc_purevirt      10017e94 f   LIBCMT:inithelp.obj
 0001:00016eb0       __CIsqrt                   10017eb0 f   LIBCMT:sqrt.obj
 0001:00016ec4       _sqrt                      10017ec4     LIBCMT:sqrt.obj
 0001:00016f6a       __decomp                   10017f6a f   LIBCMT:util.obj
 0001:0001703c       __set_exp                  1001803c f   LIBCMT:util.obj
 0001:0001706b       __handle_exc               1001806b f   LIBCMT:fpexcept.obj
 0001:00017249       __raise_exc                10018249 f   LIBCMT:fpexcept.obj
 0001:0001726a       __raise_exc_ex             1001826a f   LIBCMT:fpexcept.obj
 0001:0001754f       __set_errno_from_matherr   1001854f f   LIBCMT:fpexcept.obj
 0001:0001757c       ___set_fpsr_sse2           1001857c f   LIBCMT:fpctrl.obj
 0001:000175f2       __clrfp                    100185f2 f   LIBCMT:fpctrl.obj
 0001:00017603       __ctrlfp                   10018603 f   LIBCMT:fpctrl.obj
 0001:0001762e       __set_statfp               1001862e f   LIBCMT:fpctrl.obj
 0001:00017686       __statfp                   10018686 f   LIBCMT:fpctrl.obj
 0001:00017696       __callnewh                 10018696 f   LIBCMT:handler.obj
 0001:000176bc       __initp_heap_handler       100186bc f   LIBCMT:handler.obj
 0001:000176c9       ___addlocaleref            100186c9 f   LIBCMT:localref.obj
 0001:0001775e       ___freetlocinfo            1001875e f   LIBCMT:localref.obj
 0001:000178b8       ___removelocaleref         100188b8 f   LIBCMT:localref.obj
 0001:00017958       ___updatetlocinfo          10018958 f   LIBCMT:localref.obj
 0001:000179d8       __updatetlocinfoEx_nolock  100189d8 f   LIBCMT:localref.obj
 0001:00017a23       ___initmbctable            10018a23 f   LIBCMT:mbctype.obj
 0001:00017cda       ___updatetmbcinfo          10018cda f   LIBCMT:mbctype.obj
 0001:00017d80       __setmbcp                  10018d80 f   LIBCMT:mbctype.obj
 0001:00017f28       __setmbcp_nolock           10018f28 f   LIBCMT:mbctype.obj
 0001:00018113       __tolower_l                10019113 f   LIBCMT:tolower.obj
 0001:00018256       _tolower                   10019256 f   LIBCMT:tolower.obj
 0001:00018282       __locterm                  10019282 f   LIBCMT:wsetloca.obj
 0001:000182d4       __XcptFilter               100192d4 f   LIBCMT:winxfltr.obj
 0001:0001842f       ___CppXcptFilter           1001942f f   LIBCMT:winxfltr.obj
 0001:0001844d       __heap_init                1001944d f   LIBCMT:heapinit.obj
 0001:00018462       __heap_term                10019462 f   LIBCMT:heapinit.obj
 0001:0001846a       __ioinit                   1001946a f   LIBCMT:ioinit.obj
 0001:0001871e       __ioterm                   1001971e f   LIBCMT:ioinit.obj
 0001:00018770       __setargv                  10019770 f   LIBCMT:stdargv.obj
 0001:0001899f       __setenvp                  1001999f f   LIBCMT:stdenvp.obj
 0001:00018a80       ___security_init_cookie    10019a80 f   LIBCMT:gs_support.obj
 0001:00018b1c       _DllMain@12                10019b1c f   LIBCMT:dllmain.obj
 0001:00018b22       ___crtGetEnvironmentStringsA 10019b22 f   LIBCMT:a_env.obj
 0001:00018baf       ___crtFlsAlloc             10019baf f   LIBCMT:winapisupp.obj
 0001:00018bcd       ___crtFlsFree              10019bcd f   LIBCMT:winapisupp.obj
 0001:00018bec       ___crtFlsGetValue          10019bec f   LIBCMT:winapisupp.obj
 0001:00018c0b       ___crtFlsSetValue          10019c0b f   LIBCMT:winapisupp.obj
 0001:00018c2d       ___crtInitializeCriticalSectionEx 10019c2d f   LIBCMT:winapisupp.obj
 0001:00018c5b       ___crtIsPackagedApp        10019c5b f   LIBCMT:winapisupp.obj
 0001:00018c9b       ___crtLoadWinApiPointers   10019c9b f   LIBCMT:winapisupp.obj
 0001:00018f26       ___crtSleep                10019f26 f   LIBCMT:winapisupp.obj
 0001:00018f34       ___crtTerminateProcess     10019f34 f   LIBCMT:winapisupp.obj
 0001:00018f49       ___crtUnhandledException   10019f49 f   LIBCMT:winapisupp.obj
 0001:00018f5f       __RTC_Initialize           10019f5f f   LIBCMT:initsect.obj
 0001:00018f7f       __RTC_Terminate            10019f7f f   LIBCMT:initsect.obj
 0001:00018fa0       __CallSettingFrame@12      10019fa0 f   LIBCMT:lowhelpr.obj
 0001:00018fc7       __NLG_Return               10019fc7     LIBCMT:lowhelpr.obj
 0001:00018fec       ?terminate@@YAXXZ          10019fec f   LIBCMT:hooks.obj
 0001:00019020       __initp_eh_hooks           1001a020 f   LIBCMT:hooks.obj
 0001:00019031       ___DestructExceptionObject 1001a031 f   LIBCMT:frame.obj
 0001:000190c0       _strcmp                    1001a0c0 f   LIBCMT:strcmp.obj
 0001:0001914c       ?_Type_info_dtor@type_info@@CAXPAV1@@Z 1001a14c f   LIBCMT:typname.obj
 0001:000191bd       __cfltcvt                  1001a1bd f   LIBCMT:cvt.obj
 0001:000191de       __cfltcvt_l                1001a1de f   LIBCMT:cvt.obj
 0001:00019264       __cftoa_l                  1001a264 f   LIBCMT:cvt.obj
 0001:000195c0       __cftoe                    1001a5c0 f   LIBCMT:cvt.obj
 0001:0001972f       __cftoe_l                  1001a72f f   LIBCMT:cvt.obj
 0001:000198e9       __cftof_l                  1001a8e9 f   LIBCMT:cvt.obj
 0001:000199aa       __cftog_l                  1001a9aa f   LIBCMT:cvt.obj
 0001:00019aa9       __cropzeros                1001aaa9 f   LIBCMT:cvt.obj
 0001:00019aba       __cropzeros_l              1001aaba f   LIBCMT:cvt.obj
 0001:00019b3a       __fassign                  1001ab3a f   LIBCMT:cvt.obj
 0001:00019b52       __fassign_l                1001ab52 f   LIBCMT:cvt.obj
 0001:00019b94       __forcdecpt                1001ab94 f   LIBCMT:cvt.obj
 0001:00019ba5       __forcdecpt_l              1001aba5 f   LIBCMT:cvt.obj
 0001:00019c19       __positive                 1001ac19 f   LIBCMT:cvt.obj
 0001:00019c5b       __setdefaultprecision      1001ac5b f   LIBCMT:fp8.obj
 0001:00019c82       __initp_misc_cfltcvt_tab   1001ac82 f   LIBCMT:cmiscdat.obj
 0001:00019ca1       _strcpy_s                  1001aca1 f   LIBCMT:strcpy_s.obj
 0001:00019cf6       __crt_debugger_hook        1001acf6 f   LIBCMT:dbghook.obj
 0001:00019d00       _memset                    1001ad00 f   LIBCMT:memset.obj
 0001:00019d90       __lock                     1001ad90 f   LIBCMT:mlock.obj
 0001:00019dc4       __mtdeletelocks            1001adc4 f   LIBCMT:mlock.obj
 0001:00019e18       __mtinitlocknum            1001ae18 f   LIBCMT:mlock.obj
 0001:00019ec1       __mtinitlocks              1001aec1 f   LIBCMT:mlock.obj
 0001:00019efa       __unlock                   1001aefa f   LIBCMT:mlock.obj
 0001:00019f10       __FindPESection            1001af10 f   LIBCMT:pesect.obj
 0001:00019f60       __IsNonwritableInCurrentImage 1001af60 f   LIBCMT:pesect.obj
 0001:0001a020       __ValidateImageBase        1001b020 f   LIBCMT:pesect.obj
 0001:0001a051       __initp_misc_rand_s        1001b051 f   LIBCMT:rand_s.obj
 0001:0001a060       __aulldvrm                 1001b060 f   LIBCMT:ulldvrm.obj
 0001:0001a0f5       __fcloseall                1001b0f5 f   LIBCMT:closeall.obj
 0001:0001a192       __fileno                   1001b192 f   LIBCMT:fileno.obj
 0001:0001a1b6       __commit                   1001b1b6 f   LIBCMT:commit.obj
 0001:0001a29f       __write                    1001b29f f   LIBCMT:write.obj
 0001:0001a38e       __write_nolock             1001b38e f   LIBCMT:write.obj
 0001:0001abf3       __freebuf                  1001bbf3 f   LIBCMT:_freebuf.obj
 0001:0001ac23       _wcsncpy_s                 1001bc23 f   LIBCMT:wcsncpy_s.obj
 0001:0001ace1       _realloc                   1001bce1 f   LIBCMT:realloc.obj
 0001:0001ad8c       __calloc_impl              1001bd8c f   LIBCMT:calloc_impl.obj
 0001:0001ae10       __local_unwind4            1001be10 f   LIBCMT:exsup4.obj
 0001:0001aee6       __seh_longjmp_unwind4@4    1001bee6 f   LIBCMT:exsup4.obj
 0001:0001af02       @_EH4_CallFilterFunc@8     1001bf02 f   LIBCMT:exsup4.obj
 0001:0001af19       @_EH4_TransferToHandler@8  1001bf19 f   LIBCMT:exsup4.obj
 0001:0001af32       @_EH4_GlobalUnwind2@8      1001bf32 f   LIBCMT:exsup4.obj
 0001:0001af4b       @_EH4_LocalUnwind@16       1001bf4b f   LIBCMT:exsup4.obj
 0001:0001af62       __freea                    1001bf62 f i LIBCMT:a_loc.obj
 0001:0001af80       _GetTableIndexFromLocaleName 1001bf80 f   LIBCMT:winapinls.obj
 0001:0001afce       ___crtDownlevelLocaleNameToLCID 1001bfce f   LIBCMT:winapinls.obj
 0001:0001aff8       ___crtLCMapStringEx        1001bff8 f   LIBCMT:winapinls.obj
 0001:0001b044       ___wcsnicmp_ascii          1001c044 f   LIBCMT:winapinls.obj
 0001:0001b0c0       __trandisp1                1001c0c0 f   LIBCMT:87disp.obj
 0001:0001b127       __trandisp2                1001c127 f   LIBCMT:87disp.obj
 0001:0001b1b3       __rttospopde               1001c1b3     LIBCMT:87disp.obj
 0001:0001b1b8       __rttospop                 1001c1b8     LIBCMT:87disp.obj
 0001:0001b1ba       __rtnospop                 1001c1ba     LIBCMT:87disp.obj
 0001:0001b1bc       __rttosnpop                1001c1bc     LIBCMT:87disp.obj
 0001:0001b1bd       __rtnospopde               1001c1bd     LIBCMT:87disp.obj
 0001:0001b1c4       __rtzeropop                1001c1c4     LIBCMT:87disp.obj
 0001:0001b1c6       __rtzeronpop               1001c1c6     LIBCMT:87disp.obj
 0001:0001b1cb       __rtonepop                 1001c1cb     LIBCMT:87disp.obj
 0001:0001b1cd       __rtonenpop                1001c1cd     LIBCMT:87disp.obj
 0001:0001b1d2       __tosnan1                  1001c1d2     LIBCMT:87disp.obj
 0001:0001b1fd       __nosnan2                  1001c1fd     LIBCMT:87disp.obj
 0001:0001b1ff       __tosnan2                  1001c1ff     LIBCMT:87disp.obj
 0001:0001b227       __nan2                     1001c227     LIBCMT:87disp.obj
 0001:0001b266       __rtindfpop                1001c266     LIBCMT:87disp.obj
 0001:0001b268       __rtindfnpop               1001c268     LIBCMT:87disp.obj
 0001:0001b279       __rttosnpopde              1001c279     LIBCMT:87disp.obj
 0001:0001b283       __rtchsifneg               1001c283     LIBCMT:87disp.obj
 0001:0001b290       __startTwoArgErrorHandling 1001c290 f   LIBCMT:genexcep.obj
 0001:0001b2a7       __startOneArgErrorHandling 1001c2a7 f   LIBCMT:genexcep.obj
 0001:0001b2f0       __twoToTOS                 1001c2f0 f   LIBCMT:common.obj
 0001:0001b305       __load_CW                  1001c305 f   LIBCMT:common.obj
 0001:0001b31c       __convertTOStoQNaN         1001c31c f   LIBCMT:common.obj
 0001:0001b335       __fload_withFB             1001c335 f   LIBCMT:common.obj
 0001:0001b378       __checkTOS_withFB          1001c378 f   LIBCMT:common.obj
 0001:0001b38e       __fast_exit                1001c38e f   LIBCMT:common.obj
 0001:0001b39b       __math_exit                1001c39b f   LIBCMT:common.obj
 0001:0001b3c5       __check_overflow_exit      1001c3c5 f   LIBCMT:common.obj
 0001:0001b3d9       __check_range_exit         1001c3d9 f   LIBCMT:common.obj
 0001:0001b47c       __matherr                  1001c47c f   LIBCMT:matherr.obj
 0001:0001b47f       ___free_lconv_mon          1001c47f f   LIBCMT:initmon.obj
 0001:0001b57b       ___free_lconv_num          1001c57b f   LIBCMT:initnum.obj
 0001:0001b5e2       ___free_lc_time            1001c5e2 f   LIBCMT:inittime.obj
 0001:0001bb66       ___crtLCMapStringA         1001cb66 f   LIBCMT:a_map.obj
 0001:0001bca4       ___crtGetStringTypeA       1001cca4 f   LIBCMT:a_str.obj
 0001:0001bce4       __isctype_l                1001cce4 f   LIBCMT:isctype.obj
 0001:0001bd95       __isleadbyte_l             1001cd95 f i LIBCMT:_wctype.obj
 0001:0001bdcf       _isleadbyte                1001cdcf f i LIBCMT:_wctype.obj
 0001:0001be3a       __ismbblead                1001ce3a f   LIBCMT:ismbbyte.obj
 0001:0001be50       __global_unwind2           1001ce50 f   LIBCMT:exsup.obj
 0001:0001beb5       __local_unwind2            1001ceb5 f   LIBCMT:exsup.obj
 0001:0001bf39       __abnormal_termination     1001cf39 f   LIBCMT:exsup.obj
 0001:0001bf5c       __NLG_Notify1              1001cf5c f   LIBCMT:exsup.obj
 0001:0001bf65       __NLG_Notify               1001cf65 f   LIBCMT:exsup.obj
 0001:0001bf7c       __NLG_Dispatch             1001cf7c     LIBCMT:exsup.obj
 0001:0001bf7c       __NLG_Dispatch2            1001cf7c     LIBCMT:exsup.obj
 0001:0001bf84       __NLG_Call                 1001cf84 f   LIBCMT:exsup.obj
 0001:0001bf86       __NLG_Return2              1001cf86     LIBCMT:exsup.obj
 0001:0001bf87       __isdigit_l                1001cf87 f i LIBCMT:_ctype.obj
 0001:0001bfd9       _isdigit                   1001cfd9 f i LIBCMT:_ctype.obj
 0001:0001c010       _strrchr                   1001d010 f   LIBCMT:strrchr.obj
 0001:0001c147       __fptostr                  1001d147 f   LIBCMT:_fptostr.obj
 0001:0001c1f7       ___crt_atoflt_l            1001d1f7 f   LIBCMT:atodbl.obj
 0001:0001c29b       __atodbl_l                 1001d29b f   LIBCMT:atodbl.obj
 0001:0001c329       __atoflt_l                 1001d329 f   LIBCMT:atodbl.obj
 0001:0001c341       ___dtold                   1001d341 f   LIBCMT:cfout.obj
 0001:0001c409       __fltout2                  1001d409 f   LIBCMT:cfout.obj
 0001:0001c4a0       __alldvrm                  1001d4a0 f   LIBCMT:lldvrm.obj
 0001:0001c580       __aullshr                  1001d580 f   LIBCMT:ullshr.obj
 0001:0001c59f       __controlfp_s              1001d59f f   LIBCMT:contrlfp.obj
 0001:0001c5fc       __fptrap                   1001d5fc f   LIBCMT:crt0fp.obj
 0001:0001c605       __VEC_memset               1001d605 f   LIBCMT:p4_memset.obj
 0001:0001c6cd       __isatty                   1001d6cd f   LIBCMT:isatty.obj
 0001:0001c721       __fclose_nolock            1001d721 f   LIBCMT:fclose.obj
 0001:0001c78d       _fclose                    1001d78d f   LIBCMT:fclose.obj
 0001:0001c804       ___lock_fhandle            1001d804 f   LIBCMT:osfinfo.obj
 0001:0001c892       __free_osfhnd              1001d892 f   LIBCMT:osfinfo.obj
 0001:0001c918       __get_osfhandle            1001d918 f   LIBCMT:osfinfo.obj
 0001:0001c97f       __unlock_fhandle           1001d97f f   LIBCMT:osfinfo.obj
 0001:0001c9a5       __lseeki64_nolock          1001d9a5 f   LIBCMT:lseeki64.obj
 0001:0001ca18       __mbtowc_l                 1001da18 f   LIBCMT:mbtowc.obj
 0001:0001cb0d       _mbtowc                    1001db0d f   LIBCMT:mbtowc.obj
 0001:0001cb25       __putwch_nolock            1001db25 f   LIBCMT:putwch.obj
 0001:0001cb70       __chkstk                   1001db70 f   LIBCMT:chkstk.obj
 0001:0001cb70       __alloca_probe             1001db70 f   LIBCMT:chkstk.obj
 0001:0001cba0       __alloca_probe_16          1001dba0 f   LIBCMT:alloca16.obj
 0001:0001cbb6       __alloca_probe_8           1001dbb6     LIBCMT:alloca16.obj
 0001:0001cbcc       __87except                 1001dbcc f   LIBCMT:87except.obj
 0001:0001ccd5       __ld12tod                  1001dcd5 f   LIBCMT:intrncvt.obj
 0001:0001d247       __ld12tof                  1001e247 f   LIBCMT:intrncvt.obj
 0001:0001d7b9       ___strgtold12_l            1001e7b9 f   LIBCMT:strgtold.obj
 0001:0001df61       _$I10_OUTPUT               1001ef61 f   LIBCMT:x10fout.obj
 0001:0001e9de       __control87                1001f9de f i LIBCMT:ieee87.obj
 0001:0001ed77       __close                    1001fd77 f   LIBCMT:close.obj
 0001:0001ee52       __close_nolock             1001fe52 f   LIBCMT:close.obj
 0001:0001eeec       ___termconout              1001feec f   LIBCMT:initcon.obj
 0001:0001ef03       ___initconout              1001ff03 f   LIBCMT:initcon.obj
 0001:0001ef22       ___mtold12                 1001ff22 f   LIBCMT:mantold.obj
 0001:0001f110       __allmul                   10020110 f   LIBCMT:llmul.obj
 0001:0001f150       _IsProcessorFeaturePresent@4 10020150 f   kernel32:KERNEL32.dll
 0001:0001f156       _RtlUnwind@16              10020156 f   kernel32:KERNEL32.dll
 0001:0001f15c       ___delayLoadHelper2@8      1002015c f   DelayImp:delayhlp.obj
 0002:00000000       __imp__GetModuleHandleA@4  10021000     kernel32:KERNEL32.dll
 0002:00000004       __imp__GetStdHandle@4      10021004     kernel32:KERNEL32.dll
 0002:00000008       __imp__GetFileType@4       10021008     kernel32:KERNEL32.dll
 0002:0000000c       __imp__GetModuleFileNameW@12 1002100c     kernel32:KERNEL32.dll
 0002:00000010       __imp__GetModuleHandleExW@12 10021010     kernel32:KERNEL32.dll
 0002:00000014       __imp__WriteConsoleW@20    10021014     kernel32:KERNEL32.dll
 0002:00000018       __imp__EncodePointer@4     10021018     kernel32:KERNEL32.dll
 0002:0000001c       __imp__DecodePointer@4     1002101c     kernel32:KERNEL32.dll
 0002:00000020       __imp__GetCommandLineA@0   10021020     kernel32:KERNEL32.dll
 0002:00000024       __imp__GetCurrentThreadId@0 10021024     kernel32:KERNEL32.dll
 0002:00000028       __imp__IsProcessorFeaturePresent@4 10021028     kernel32:KERNEL32.dll
 0002:0000002c       __imp__GetLastError@0      1002102c     kernel32:KERNEL32.dll
 0002:00000030       __imp__HeapFree@12         10021030     kernel32:KERNEL32.dll
 0002:00000034       __imp__HeapAlloc@12        10021034     kernel32:KERNEL32.dll
 0002:00000038       __imp__RaiseException@16   10021038     kernel32:KERNEL32.dll
 0002:0000003c       __imp__RtlUnwind@16        1002103c     kernel32:KERNEL32.dll
 0002:00000040       __imp__IsDebuggerPresent@0 10021040     kernel32:KERNEL32.dll
 0002:00000044       __imp__SetLastError@4      10021044     kernel32:KERNEL32.dll
 0002:00000048       __imp__ExitProcess@4       10021048     kernel32:KERNEL32.dll
 0002:0000004c       __imp__GetProcAddress@8    1002104c     kernel32:KERNEL32.dll
 0002:00000050       __imp__MultiByteToWideChar@24 10021050     kernel32:KERNEL32.dll
 0002:00000054       __imp__WideCharToMultiByte@32 10021054     kernel32:KERNEL32.dll
 0002:00000058       __imp__EnterCriticalSection@4 10021058     kernel32:KERNEL32.dll
 0002:0000005c       __imp__LeaveCriticalSection@4 1002105c     kernel32:KERNEL32.dll
 0002:00000060       __imp__OutputDebugStringW@4 10021060     kernel32:KERNEL32.dll
 0002:00000064       __imp__LoadLibraryExW@12   10021064     kernel32:KERNEL32.dll
 0002:00000068       __imp__WriteFile@20        10021068     kernel32:KERNEL32.dll
 0002:0000006c       __imp__HeapSize@12         1002106c     kernel32:KERNEL32.dll
 0002:00000070       __imp__IsValidCodePage@4   10021070     kernel32:KERNEL32.dll
 0002:00000074       __imp__GetACP@0            10021074     kernel32:KERNEL32.dll
 0002:00000078       __imp__GetOEMCP@0          10021078     kernel32:KERNEL32.dll
 0002:0000007c       __imp__GetCPInfo@8         1002107c     kernel32:KERNEL32.dll
 0002:00000080       __imp__GetProcessHeap@0    10021080     kernel32:KERNEL32.dll
 0002:00000084       __imp__DeleteCriticalSection@4 10021084     kernel32:KERNEL32.dll
 0002:00000088       __imp__GetStartupInfoW@4   10021088     kernel32:KERNEL32.dll
 0002:0000008c       __imp__GetModuleFileNameA@12 1002108c     kernel32:KERNEL32.dll
 0002:00000090       __imp__QueryPerformanceCounter@4 10021090     kernel32:KERNEL32.dll
 0002:00000094       __imp__GetCurrentProcessId@0 10021094     kernel32:KERNEL32.dll
 0002:00000098       __imp__GetSystemTimeAsFileTime@4 10021098     kernel32:KERNEL32.dll
 0002:0000009c       __imp__GetEnvironmentStringsW@0 1002109c     kernel32:KERNEL32.dll
 0002:000000a0       __imp__FreeEnvironmentStringsW@4 100210a0     kernel32:KERNEL32.dll
 0002:000000a4       __imp__UnhandledExceptionFilter@4 100210a4     kernel32:KERNEL32.dll
 0002:000000a8       __imp__SetUnhandledExceptionFilter@4 100210a8     kernel32:KERNEL32.dll
 0002:000000ac       __imp__InitializeCriticalSectionAndSpinCount@8 100210ac     kernel32:KERNEL32.dll
 0002:000000b0       __imp__Sleep@4             100210b0     kernel32:KERNEL32.dll
 0002:000000b4       __imp__GetCurrentProcess@0 100210b4     kernel32:KERNEL32.dll
 0002:000000b8       __imp__TerminateProcess@8  100210b8     kernel32:KERNEL32.dll
 0002:000000bc       __imp__TlsAlloc@0          100210bc     kernel32:KERNEL32.dll
 0002:000000c0       __imp__TlsGetValue@4       100210c0     kernel32:KERNEL32.dll
 0002:000000c4       __imp__TlsSetValue@8       100210c4     kernel32:KERNEL32.dll
 0002:000000c8       __imp__TlsFree@4           100210c8     kernel32:KERNEL32.dll
 0002:000000cc       __imp__GetModuleHandleW@4  100210cc     kernel32:KERNEL32.dll
 0002:000000d0       __imp__FreeLibrary@4       100210d0     kernel32:KERNEL32.dll
 0002:000000d4       __imp__FlushFileBuffers@4  100210d4     kernel32:KERNEL32.dll
 0002:000000d8       __imp__GetConsoleCP@0      100210d8     kernel32:KERNEL32.dll
 0002:000000dc       __imp__GetConsoleMode@8    100210dc     kernel32:KERNEL32.dll
 0002:000000e0       __imp__HeapReAlloc@16      100210e0     kernel32:KERNEL32.dll
 0002:000000e4       __imp__LCMapStringW@24     100210e4     kernel32:KERNEL32.dll
 0002:000000e8       __imp__GetStringTypeW@16   100210e8     kernel32:KERNEL32.dll
 0002:000000ec       __imp__SetStdHandle@8      100210ec     kernel32:KERNEL32.dll
 0002:000000f0       __imp__SetFilePointerEx@20 100210f0     kernel32:KERNEL32.dll
 0002:000000f4       __imp__CloseHandle@4       100210f4     kernel32:KERNEL32.dll
 0002:000000f8       __imp__CreateFileW@28      100210f8     kernel32:KERNEL32.dll
 0002:000000fc       __imp__LoadLibraryExA@12   100210fc     kernel32:KERNEL32.dll
 0002:00000100       \177KERNEL32_NULL_THUNK_DATA 10021100     kernel32:KERNEL32.dll
 0002:00000104       ___xc_a                    10021104     LIBCMT:crt0init.obj
 0002:00000114       __register_libiconv_       10021114     binding.obj
 0002:00000118       ___xc_z                    10021118     LIBCMT:crt0init.obj
 0002:0000011c       ___xi_a                    1002111c     LIBCMT:crt0init.obj
 0002:00000130       ___xi_z                    10021130     LIBCMT:crt0init.obj
 0002:00000134       ___xp_a                    10021134     LIBCMT:crt0init.obj
 0002:00000144       ___xp_z                    10021144     LIBCMT:crt0init.obj
 0002:00000148       ___xt_a                    10021148     LIBCMT:crt0init.obj
 0002:0000014c       ___xt_z                    1002114c     LIBCMT:crt0init.obj
 0002:00000190       __sz_node_exe              10021190     node:node.exe
 0002:00000670       ??_C@_0BC@CIJDGCDI@permission?5denied?$AA@ 10021670     libcpmt:syserror.obj
 0002:00000684       ??_C@_0M@MIDIAGJP@file?5exists?$AA@ 10021684     libcpmt:syserror.obj
 0002:00000690       ??_C@_0P@FDINDDOK@no?5such?5device?$AA@ 10021690     libcpmt:syserror.obj
 0002:000006a0       ??_C@_0BC@EJHOMAAK@filename?5too?5long?$AA@ 100216a0     libcpmt:syserror.obj
 0002:000006b4       ??_C@_0BI@NGCEHDD@device?5or?5resource?5busy?$AA@ 100216b4     libcpmt:syserror.obj
 0002:000006cc       ??_C@_08GLNPIFBN@io?5error?$AA@ 100216cc     libcpmt:syserror.obj
 0002:000006d8       ??_C@_0BE@JIDOCPHM@directory?5not?5empty?$AA@ 100216d8     libcpmt:syserror.obj
 0002:000006ec       ??_C@_0BB@FCMFBGOM@invalid?5argument?$AA@ 100216ec     libcpmt:syserror.obj
 0002:00000700       ??_C@_0BD@IJDJKDEA@no?5space?5on?5device?$AA@ 10021700     libcpmt:syserror.obj
 0002:00000714       ??_C@_0BK@NDOCBPGE@no?5such?5file?5or?5directory?$AA@ 10021714     libcpmt:syserror.obj
 0002:00000730       ??_C@_0BH@KEFGLDAF@function?5not?5supported?$AA@ 10021730     libcpmt:syserror.obj
 0002:00000748       ??_C@_0BC@NJECKMKE@no?5lock?5available?$AA@ 10021748     libcpmt:syserror.obj
 0002:0000075c       ??_C@_0BC@ENOOLCNF@not?5enough?5memory?$AA@ 1002175c     libcpmt:syserror.obj
 0002:00000770       ??_C@_0BP@LKNGHENJ@resource?5unavailable?5try?5again?$AA@ 10021770     libcpmt:syserror.obj
 0002:00000790       ??_C@_0BC@PPHBOELF@cross?5device?5link?$AA@ 10021790     libcpmt:syserror.obj
 0002:000007a4       ??_C@_0BD@MOLBPMEA@operation?5canceled?$AA@ 100217a4     libcpmt:syserror.obj
 0002:000007b8       ??_C@_0BE@GHAFMPAH@too?5many?5files?5open?$AA@ 100217b8     libcpmt:syserror.obj
 0002:000007cc       ??_C@_0BC@FNODOBAE@permission_denied?$AA@ 100217cc     libcpmt:syserror.obj
 0002:000007e0       ??_C@_0P@LNDJPBFK@address_in_use?$AA@ 100217e0     libcpmt:syserror.obj
 0002:000007f0       ??_C@_0BG@IPMGOJF@address_not_available?$AA@ 100217f0     libcpmt:syserror.obj
 0002:00000808       ??_C@_0BN@LCBDHODA@address_family_not_supported?$AA@ 10021808     libcpmt:syserror.obj
 0002:00000828       ??_C@_0BP@FOJJHMCC@connection_already_in_progress?$AA@ 10021828     libcpmt:syserror.obj
 0002:00000848       ??_C@_0BE@DLHHIBGN@bad_file_descriptor?$AA@ 10021848     libcpmt:syserror.obj
 0002:0000085c       ??_C@_0BD@OJMJDIGI@connection_aborted?$AA@ 1002185c     libcpmt:syserror.obj
 0002:00000870       ??_C@_0BD@NGKCIFEP@connection_refused?$AA@ 10021870     libcpmt:syserror.obj
 0002:00000884       ??_C@_0BB@JOANDNCK@connection_reset?$AA@ 10021884     libcpmt:syserror.obj
 0002:00000898       ??_C@_0BN@JLJNLKLK@destination_address_required?$AA@ 10021898     libcpmt:syserror.obj
 0002:000008b8       ??_C@_0M@IJGMGFGP@bad_address?$AA@ 100218b8     libcpmt:syserror.obj
 0002:000008c4       ??_C@_0BB@KKNHPPIN@host_unreachable?$AA@ 100218c4     libcpmt:syserror.obj
 0002:000008d8       ??_C@_0BG@DJGBJIIK@operation_in_progress?$AA@ 100218d8     libcpmt:syserror.obj
 0002:000008f0       ??_C@_0M@EGEKIIMP@interrupted?$AA@ 100218f0     libcpmt:syserror.obj
 0002:000008fc       ??_C@_0BB@FFIHMIPJ@invalid_argument?$AA@ 100218fc     libcpmt:syserror.obj
 0002:00000910       ??_C@_0BC@FIFLCHLO@already_connected?$AA@ 10021910     libcpmt:syserror.obj
 0002:00000924       ??_C@_0BE@GJJJJDDA@too_many_files_open?$AA@ 10021924     libcpmt:syserror.obj
 0002:00000938       ??_C@_0N@HPMLKHPL@message_size?$AA@ 10021938     libcpmt:syserror.obj
 0002:00000948       ??_C@_0BC@LEEIKBAL@filename_too_long?$AA@ 10021948     libcpmt:syserror.obj
 0002:0000095c       ??_C@_0N@FCPALPJK@network_down?$AA@ 1002195c     libcpmt:syserror.obj
 0002:0000096c       ??_C@_0O@EHNDLHIG@network_reset?$AA@ 1002196c     libcpmt:syserror.obj
 0002:0000097c       ??_C@_0BE@JFNJIDNF@network_unreachable?$AA@ 1002197c     libcpmt:syserror.obj
 0002:00000990       ??_C@_0BA@FDIJKJCL@no_buffer_space?$AA@ 10021990     libcpmt:syserror.obj
 0002:000009a0       ??_C@_0BD@JHIHCGKP@no_protocol_option?$AA@ 100219a0     libcpmt:syserror.obj
 0002:000009b4       ??_C@_0O@GBCLHHD@not_connected?$AA@ 100219b4     libcpmt:syserror.obj
 0002:000009c4       ??_C@_0N@IMHKKLEM@not_a_socket?$AA@ 100219c4     libcpmt:syserror.obj
 0002:000009d4       ??_C@_0BI@ICEIDKLJ@operation_not_supported?$AA@ 100219d4     libcpmt:syserror.obj
 0002:000009ec       ??_C@_0BH@KAPBAIJF@protocol_not_supported?$AA@ 100219ec     libcpmt:syserror.obj
 0002:00000a04       ??_C@_0BE@GAOJJFPC@wrong_protocol_type?$AA@ 10021a04     libcpmt:syserror.obj
 0002:00000a18       ??_C@_09NCHNLHPG@timed_out?$AA@ 10021a18     libcpmt:syserror.obj
 0002:00000a24       ??_C@_0BG@GDGHKFDH@operation_would_block?$AA@ 10021a24     libcpmt:syserror.obj
 0002:00000a3c       ??_C@_0BN@LKKBCCDB@address?5family?5not?5supported?$AA@ 10021a3c     libcpmt:syserror.obj
 0002:00000a5c       ??_C@_0P@LDMLAFHI@address?5in?5use?$AA@ 10021a5c     libcpmt:syserror.obj
 0002:00000a6c       ??_C@_0BG@DHPCNBJB@address?5not?5available?$AA@ 10021a6c     libcpmt:syserror.obj
 0002:00000a84       ??_C@_0BC@DFIBIBIL@already?5connected?$AA@ 10021a84     libcpmt:syserror.obj
 0002:00000a98       ??_C@_0BH@CAKOHOMI@argument?5list?5too?5long?$AA@ 10021a98     libcpmt:syserror.obj
 0002:00000ab0       ??_C@_0BH@CGIMPKIM@argument?5out?5of?5domain?$AA@ 10021ab0     libcpmt:syserror.obj
 0002:00000ac8       ??_C@_0M@KGHGGJGL@bad?5address?$AA@ 10021ac8     libcpmt:syserror.obj
 0002:00000ad4       ??_C@_0BE@MPJPGCEO@bad?5file?5descriptor?$AA@ 10021ad4     libcpmt:syserror.obj
 0002:00000ae8       ??_C@_0M@PMMIEFCP@bad?5message?$AA@ 10021ae8     libcpmt:syserror.obj
 0002:00000af4       ??_C@_0M@KPHOFDBE@broken?5pipe?$AA@ 10021af4     libcpmt:syserror.obj
 0002:00000b00       ??_C@_0BD@MGNDDEGM@connection?5aborted?$AA@ 10021b00     libcpmt:syserror.obj
 0002:00000b14       ??_C@_0BP@KAIHPOGN@connection?5already?5in?5progress?$AA@ 10021b14     libcpmt:syserror.obj
 0002:00000b34       ??_C@_0BD@PJLIIJEL@connection?5refused?$AA@ 10021b34     libcpmt:syserror.obj
 0002:00000b48       ??_C@_0BB@IECNJNOI@connection?5reset?$AA@ 10021b48     libcpmt:syserror.obj
 0002:00000b5c       ??_C@_0BN@KDMIFEIP@destination?5address?5required?$AA@ 10021b5c     libcpmt:syserror.obj
 0002:00000b7c       ??_C@_0BI@BNCLIGPB@executable?5format?5error?$AA@ 10021b7c     libcpmt:syserror.obj
 0002:00000b94       ??_C@_0P@DNAJLBJK@file?5too?5large?$AA@ 10021b94     libcpmt:syserror.obj
 0002:00000ba4       ??_C@_0BB@DHFDFGDM@host?5unreachable?$AA@ 10021ba4     libcpmt:syserror.obj
 0002:00000bb8       ??_C@_0BD@JPHBMONG@identifier?5removed?$AA@ 10021bb8     libcpmt:syserror.obj
 0002:00000bcc       ??_C@_0BG@CDNPAGJK@illegal?5byte?5sequence?$AA@ 10021bcc     libcpmt:syserror.obj
 0002:00000be4       ??_C@_0CD@BNPLBMNA@inappropriate?5io?5control?5operati@ 10021be4     libcpmt:syserror.obj
 0002:00000c08       ??_C@_0N@OHAFKDEK@invalid?5seek?$AA@ 10021c08     libcpmt:syserror.obj
 0002:00000c18       ??_C@_0P@FLLDBIDK@is?5a?5directory?$AA@ 10021c18     libcpmt:syserror.obj
 0002:00000c28       ??_C@_0N@IFLPBIOP@message?5size?$AA@ 10021c28     libcpmt:syserror.obj
 0002:00000c38       ??_C@_0N@KIIEAAIO@network?5down?$AA@ 10021c38     libcpmt:syserror.obj
 0002:00000c48       ??_C@_0O@FNPDBHEE@network?5reset?$AA@ 10021c48     libcpmt:syserror.obj
 0002:00000c58       ??_C@_0BE@IFNCKGE@network?5unreachable?$AA@ 10021c58     libcpmt:syserror.obj
 0002:00000c6c       ??_C@_0BA@PFFCAOFK@no?5buffer?5space?$AA@ 10021c6c     libcpmt:syserror.obj
 0002:00000c7c       ??_C@_0BB@IEPBLJHK@no?5child?5process?$AA@ 10021c7c     libcpmt:syserror.obj
 0002:00000c90       ??_C@_07PLECNNKG@no?5link?$AA@ 10021c90     libcpmt:syserror.obj
 0002:00000c98       ??_C@_0BF@PBGGPKKE@no?5message?5available?$AA@ 10021c98     libcpmt:syserror.obj
 0002:00000cb0       ??_C@_0L@EDOLMPAK@no?5message?$AA@ 10021cb0     libcpmt:syserror.obj
 0002:00000cbc       ??_C@_0BD@EAMBFIDF@no?5protocol?5option?$AA@ 10021cbc     libcpmt:syserror.obj
 0002:00000cd0       ??_C@_0BE@MKFDAFMP@no?5stream?5resources?$AA@ 10021cd0     libcpmt:syserror.obj
 0002:00000ce4       ??_C@_0BK@IMCPHCBI@no?5such?5device?5or?5address?$AA@ 10021ce4     libcpmt:syserror.obj
 0002:00000d00       ??_C@_0BA@ENLPPKBN@no?5such?5process?$AA@ 10021d00     libcpmt:syserror.obj
 0002:00000d10       ??_C@_0BA@DOCPFFJG@not?5a?5directory?$AA@ 10021d10     libcpmt:syserror.obj
 0002:00000d20       ??_C@_0N@POEIPGGF@not?5a?5socket?$AA@ 10021d20     libcpmt:syserror.obj
 0002:00000d30       ??_C@_0N@LGAPMMPI@not?5a?5stream?$AA@ 10021d30     libcpmt:syserror.obj
 0002:00000d40       ??_C@_0O@GLMIBBEG@not?5connected?$AA@ 10021d40     libcpmt:syserror.obj
 0002:00000d50       ??_C@_0O@NHEDABJP@not?5supported?$AA@ 10021d50     libcpmt:syserror.obj
 0002:00000d60       ??_C@_0BG@KDKHOPCO@operation?5in?5progress?$AA@ 10021d60     libcpmt:syserror.obj
 0002:00000d78       ??_C@_0BI@OHIEJAAB@operation?5not?5permitted?$AA@ 10021d78     libcpmt:syserror.obj
 0002:00000d90       ??_C@_0BI@LNEGIFLN@operation?5not?5supported?$AA@ 10021d90     libcpmt:syserror.obj
 0002:00000da8       ??_C@_0BG@OEMDKMEE@operation?5would?5block?$AA@ 10021da8     libcpmt:syserror.obj
 0002:00000dc0       ??_C@_0L@BLPOFLNJ@owner?5dead?$AA@ 10021dc0     libcpmt:syserror.obj
 0002:00000dcc       ??_C@_0P@FNPOCJBE@protocol?5error?$AA@ 10021dcc     libcpmt:syserror.obj
 0002:00000ddc       ??_C@_0BH@JPPPLHJB@protocol?5not?5supported?$AA@ 10021ddc     libcpmt:syserror.obj
 0002:00000df4       ??_C@_0BG@EICBIHDP@read?5only?5file?5system?$AA@ 10021df4     libcpmt:syserror.obj
 0002:00000e0c       ??_C@_0BO@BJBOMOEJ@resource?5deadlock?5would?5occur?$AA@ 10021e0c     libcpmt:syserror.obj
 0002:00000e2c       ??_C@_0BE@GOIPJJHG@result?5out?5of?5range?$AA@ 10021e2c     libcpmt:syserror.obj
 0002:00000e40       ??_C@_0BG@MPLKFPAE@state?5not?5recoverable?$AA@ 10021e40     libcpmt:syserror.obj
 0002:00000e58       ??_C@_0P@DIIFGFCG@stream?5timeout?$AA@ 10021e58     libcpmt:syserror.obj
 0002:00000e68       ??_C@_0P@IPFDMIFL@text?5file?5busy?$AA@ 10021e68     libcpmt:syserror.obj
 0002:00000e78       ??_C@_09KJPPMAOI@timed?5out?$AA@ 10021e78     libcpmt:syserror.obj
 0002:00000e84       ??_C@_0BO@HACHBEKI@too?5many?5files?5open?5in?5system?$AA@ 10021e84     libcpmt:syserror.obj
 0002:00000ea4       ??_C@_0P@HCOMKFCC@too?5many?5links?$AA@ 10021ea4     libcpmt:syserror.obj
 0002:00000eb4       ??_C@_0BO@EFGOJEF@too?5many?5symbolic?5link?5levels?$AA@ 10021eb4     libcpmt:syserror.obj
 0002:00000ed4       ??_C@_0BA@KGKGOOJA@value?5too?5large?$AA@ 10021ed4     libcpmt:syserror.obj
 0002:00000ee4       ??_C@_0BE@MIEJDDNH@wrong?5protocol?5type?$AA@ 10021ee4     libcpmt:syserror.obj
 0002:00000efc       ??_7bad_alloc@std@@6B@     10021efc     libcpmt:xthrow.obj
 0002:00000f04       ??_C@_0P@GHFPNOJB@bad?5allocation?$AA@ 10021f04     libcpmt:xthrow.obj
 0002:00000f14       ??_C@_17LGKOMLJ@?$AA?4?$AA?4?$AA?4?$AA?$AA@ 10021f14     LIBCMT:wassert.obj
 0002:00000f1c       ??_C@_13LBAGMAIH@?$AA?6?$AA?$AA@ 10021f1c     LIBCMT:wassert.obj
 0002:00000f20       ??_C@_15IABLJNFO@?$AA?6?$AA?6?$AA?$AA@ 10021f20     LIBCMT:wassert.obj
 0002:00000f28       ??_C@_1CO@EAEJAADC@?$AA?$DM?$AAp?$AAr?$AAo?$AAg?$AAr?$AAa?$AAm?$AA?5?$AAn?$AAa?$AAm?$AAe?$AA?5?$AAu?$AAn?$AAk?$AAn?$AAo?$AAw?$AAn?$AA?$DO?$AA?$AA@ 10021f28     LIBCMT:wassert.obj
 0002:00000f58       ??_C@_1EK@MBDPDCGA@?$AAM?$AAi?$AAc?$AAr?$AAo?$AAs?$AAo?$AAf?$AAt?$AA?5?$AAV?$AAi?$AAs?$AAu?$AAa?$AAl?$AA?5?$AAC?$AA?$CL?$AA?$CL?$AA?5?$AAR?$AAu?$AAn?$AAt?$AAi?$AAm?$AAe?$AA?5?$AAL?$AAi?$AAb@ 10021f58     LIBCMT:wassert.obj
 0002:00000fa4       __pRawDllMain              10021fa4     LIBCMT:dllcrt0.obj
 0002:00000fa4       __pDefaultRawDllMain       10021fa4     LIBCMT:dllcrt0.obj
 0002:00000fcc       ??_7type_info@@6B@         10021fcc     LIBCMT:typinfo.obj
 0002:00000fd0       __FPinit                   10021fd0     LIBCMT:fpinit.obj
 0002:00000fd8       ??_7exception@std@@6B@     10021fd8     LIBCMT:stdexcpt.obj
 0002:00000fe0       ??_C@_0BC@EOODALEL@Unknown?5exception?$AA@ 10021fe0     LIBCMT:stdexcpt.obj
 0002:00000ffc       ??_C@_1BI@BGOHAHKC@?$AAm?$AAs?$AAc?$AAo?$AAr?$AAe?$AAe?$AA?4?$AAd?$AAl?$AAl?$AA?$AA@ 10021ffc     LIBCMT:crt0dat.obj
 0002:00001014       ??_C@_0P@MIGLKIOC@CorExitProcess?$AA@ 10022014     LIBCMT:crt0dat.obj
 0002:00001024       ??_C@_1BG@GOEBHBDC@?$AAU?$AAS?$AAE?$AAR?$AA3?$AA2?$AA?4?$AAD?$AAL?$AAL?$AA?$AA@ 10022024     LIBCMT:crtmboxw.obj
 0002:0000103c       ??_C@_0M@DLDCCGNP@MessageBoxW?$AA@ 1002203c     LIBCMT:crtmboxw.obj
 0002:00001048       ??_C@_0BA@HNOPNCHB@GetActiveWindow?$AA@ 10022048     LIBCMT:crtmboxw.obj
 0002:00001058       ??_C@_0BD@HHGDFDBJ@GetLastActivePopup?$AA@ 10022058     LIBCMT:crtmboxw.obj
 0002:0000106c       ??_C@_0BK@DEKFELLI@GetUserObjectInformationW?$AA@ 1002206c     LIBCMT:crtmboxw.obj
 0002:00001088       ??_C@_0BI@DFKBFLJE@GetProcessWindowStation?$AA@ 10022088     LIBCMT:crtmboxw.obj
 0002:00001158       ??_C@_1FK@PGACCAFB@?$AAR?$AA6?$AA0?$AA0?$AA2?$AA?$AN?$AA?6?$AA?9?$AA?5?$AAf?$AAl?$AAo?$AAa?$AAt?$AAi?$AAn?$AAg?$AA?5?$AAp?$AAo?$AAi?$AAn?$AAt?$AA?5?$AAs?$AAu?$AAp?$AAp?$AAo?$AAr?$AAt?$AA?5@ 10022158     LIBCMT:crt0msg.obj
 0002:000011b8       ??_C@_1FE@LLNEDJMD@?$AAR?$AA6?$AA0?$AA0?$AA8?$AA?$AN?$AA?6?$AA?9?$AA?5?$AAn?$AAo?$AAt?$AA?5?$AAe?$AAn?$AAo?$AAu?$AAg?$AAh?$AA?5?$AAs?$AAp?$AAa?$AAc?$AAe?$AA?5?$AAf?$AAo?$AAr?$AA?5?$AAa?$AAr@ 100221b8     LIBCMT:crt0msg.obj
 0002:00001210       ??_C@_1FI@HONFMGBI@?$AAR?$AA6?$AA0?$AA0?$AA9?$AA?$AN?$AA?6?$AA?9?$AA?5?$AAn?$AAo?$AAt?$AA?5?$AAe?$AAn?$AAo?$AAu?$AAg?$AAh?$AA?5?$AAs?$AAp?$AAa?$AAc?$AAe?$AA?5?$AAf?$AAo?$AAr?$AA?5?$AAe?$AAn@ 10022210     LIBCMT:crt0msg.obj
 0002:00001268       ??_C@_1EG@BEHAGFJD@?$AAR?$AA6?$AA0?$AA1?$AA0?$AA?$AN?$AA?6?$AA?9?$AA?5?$AAa?$AAb?$AAo?$AAr?$AAt?$AA?$CI?$AA?$CJ?$AA?5?$AAh?$AAa?$AAs?$AA?5?$AAb?$AAe?$AAe?$AAn?$AA?5?$AAc?$AAa?$AAl?$AAl?$AAe?$AAd@ 10022268     LIBCMT:crt0msg.obj
 0002:000012b0       ??_C@_1FI@LOGNIKDM@?$AAR?$AA6?$AA0?$AA1?$AA6?$AA?$AN?$AA?6?$AA?9?$AA?5?$AAn?$AAo?$AAt?$AA?5?$AAe?$AAn?$AAo?$AAu?$AAg?$AAh?$AA?5?$AAs?$AAp?$AAa?$AAc?$AAe?$AA?5?$AAf?$AAo?$AAr?$AA?5?$AAt?$AAh@ 100222b0     LIBCMT:crt0msg.obj
 0002:00001308       ??_C@_1FK@BEOGODMC@?$AAR?$AA6?$AA0?$AA1?$AA7?$AA?$AN?$AA?6?$AA?9?$AA?5?$AAu?$AAn?$AAe?$AAx?$AAp?$AAe?$AAc?$AAt?$AAe?$AAd?$AA?5?$AAm?$AAu?$AAl?$AAt?$AAi?$AAt?$AAh?$AAr?$AAe?$AAa?$AAd?$AA?5@ 10022308     LIBCMT:crt0msg.obj
 0002:00001368       ??_C@_1EC@JIBHAOPH@?$AAR?$AA6?$AA0?$AA1?$AA8?$AA?$AN?$AA?6?$AA?9?$AA?5?$AAu?$AAn?$AAe?$AAx?$AAp?$AAe?$AAc?$AAt?$AAe?$AAd?$AA?5?$AAh?$AAe?$AAa?$AAp?$AA?5?$AAe?$AAr?$AAr?$AAo?$AAr?$AA?$AN?$AA?6@ 10022368     LIBCMT:crt0msg.obj
 0002:000013b0       ??_C@_1FC@ECHBIFBC@?$AAR?$AA6?$AA0?$AA1?$AA9?$AA?$AN?$AA?6?$AA?9?$AA?5?$AAu?$AAn?$AAa?$AAb?$AAl?$AAe?$AA?5?$AAt?$AAo?$AA?5?$AAo?$AAp?$AAe?$AAn?$AA?5?$AAc?$AAo?$AAn?$AAs?$AAo?$AAl?$AAe?$AA?5@ 100223b0     LIBCMT:crt0msg.obj
 0002:00001408       ??_C@_1GK@FHCKBEFA@?$AAR?$AA6?$AA0?$AA2?$AA4?$AA?$AN?$AA?6?$AA?9?$AA?5?$AAn?$AAo?$AAt?$AA?5?$AAe?$AAn?$AAo?$AAu?$AAg?$AAh?$AA?5?$AAs?$AAp?$AAa?$AAc?$AAe?$AA?5?$AAf?$AAo?$AAr?$AA?5?$AA_?$AAo@ 10022408     LIBCMT:crt0msg.obj
 0002:00001478       ??_C@_1EM@MAADIHMB@?$AAR?$AA6?$AA0?$AA2?$AA5?$AA?$AN?$AA?6?$AA?9?$AA?5?$AAp?$AAu?$AAr?$AAe?$AA?5?$AAv?$AAi?$AAr?$AAt?$AAu?$AAa?$AAl?$AA?5?$AAf?$AAu?$AAn?$AAc?$AAt?$AAi?$AAo?$AAn?$AA?5?$AAc@ 10022478     LIBCMT:crt0msg.obj
 0002:000014c8       ??_C@_1GK@MCAAGJMO@?$AAR?$AA6?$AA0?$AA2?$AA6?$AA?$AN?$AA?6?$AA?9?$AA?5?$AAn?$AAo?$AAt?$AA?5?$AAe?$AAn?$AAo?$AAu?$AAg?$AAh?$AA?5?$AAs?$AAp?$AAa?$AAc?$AAe?$AA?5?$AAf?$AAo?$AAr?$AA?5?$AAs?$AAt@ 100224c8     LIBCMT:crt0msg.obj
 0002:00001538       ??_C@_1GK@MFGOKLAG@?$AAR?$AA6?$AA0?$AA2?$AA7?$AA?$AN?$AA?6?$AA?9?$AA?5?$AAn?$AAo?$AAt?$AA?5?$AAe?$AAn?$AAo?$AAu?$AAg?$AAh?$AA?5?$AAs?$AAp?$AAa?$AAc?$AAe?$AA?5?$AAf?$AAo?$AAr?$AA?5?$AAl?$AAo@ 10022538     LIBCMT:crt0msg.obj
 0002:000015a8       ??_C@_1EK@HHFLMAOL@?$AAR?$AA6?$AA0?$AA2?$AA8?$AA?$AN?$AA?6?$AA?9?$AA?5?$AAu?$AAn?$AAa?$AAb?$AAl?$AAe?$AA?5?$AAt?$AAo?$AA?5?$AAi?$AAn?$AAi?$AAt?$AAi?$AAa?$AAl?$AAi?$AAz?$AAe?$AA?5?$AAh?$AAe@ 100225a8     LIBCMT:crt0msg.obj
 0002:000015f4       ??_C@_1DO@BMFCDCD@?$AAR?$AA6?$AA0?$AA3?$AA0?$AA?$AN?$AA?6?$AA?9?$AA?5?$AAC?$AAR?$AAT?$AA?5?$AAn?$AAo?$AAt?$AA?5?$AAi?$AAn?$AAi?$AAt?$AAi?$AAa?$AAl?$AAi?$AAz?$AAe?$AAd?$AA?$AN?$AA?6?$AA?$AA@ 100225f4     LIBCMT:crt0msg.obj
 0002:00001638       ??_C@_1MG@ENCOOIDF@?$AAR?$AA6?$AA0?$AA3?$AA1?$AA?$AN?$AA?6?$AA?9?$AA?5?$AAA?$AAt?$AAt?$AAe?$AAm?$AAp?$AAt?$AA?5?$AAt?$AAo?$AA?5?$AAi?$AAn?$AAi?$AAt?$AAi?$AAa?$AAl?$AAi?$AAz?$AAe?$AA?5?$AAt@ 10022638     LIBCMT:crt0msg.obj
 0002:00001700       ??_C@_1GG@GOPILAJP@?$AAR?$AA6?$AA0?$AA3?$AA2?$AA?$AN?$AA?6?$AA?9?$AA?5?$AAn?$AAo?$AAt?$AA?5?$AAe?$AAn?$AAo?$AAu?$AAg?$AAh?$AA?5?$AAs?$AAp?$AAa?$AAc?$AAe?$AA?5?$AAf?$AAo?$AAr?$AA?5?$AAl?$AAo@ 10022700     LIBCMT:crt0msg.obj
 0002:00001768       ??_C@_1BOO@KGEDBGAJ@?$AAR?$AA6?$AA0?$AA3?$AA3?$AA?$AN?$AA?6?$AA?9?$AA?5?$AAA?$AAt?$AAt?$AAe?$AAm?$AAp?$AAt?$AA?5?$AAt?$AAo?$AA?5?$AAu?$AAs?$AAe?$AA?5?$AAM?$AAS?$AAI?$AAL?$AA?5?$AAc?$AAo?$AAd@ 10022768     LIBCMT:crt0msg.obj
 0002:00001958       ??_C@_1GG@MKFPEKFO@?$AAR?$AA6?$AA0?$AA3?$AA4?$AA?$AN?$AA?6?$AA?9?$AA?5?$AAi?$AAn?$AAc?$AAo?$AAn?$AAs?$AAi?$AAs?$AAt?$AAe?$AAn?$AAt?$AA?5?$AAo?$AAn?$AAe?$AAx?$AAi?$AAt?$AA?5?$AAb?$AAe?$AAg@ 10022958     LIBCMT:crt0msg.obj
 0002:000019c0       ??_C@_1BO@BFCDCGC@?$AAD?$AAO?$AAM?$AAA?$AAI?$AAN?$AA?5?$AAe?$AAr?$AAr?$AAo?$AAr?$AA?$AN?$AA?6?$AA?$AA@ 100229c0     LIBCMT:crt0msg.obj
 0002:000019e0       ??_C@_1BK@KMOMNAAI@?$AAS?$AAI?$AAN?$AAG?$AA?5?$AAe?$AAr?$AAr?$AAo?$AAr?$AA?$AN?$AA?6?$AA?$AA@ 100229e0     LIBCMT:crt0msg.obj
 0002:000019fc       ??_C@_1BM@JBBEPPHI@?$AAT?$AAL?$AAO?$AAS?$AAS?$AA?5?$AAe?$AAr?$AAr?$AAo?$AAr?$AA?$AN?$AA?6?$AA?$AA@ 100229fc     LIBCMT:crt0msg.obj
 0002:00001a18       ??_C@_15JNBOKNOG@?$AA?$AN?$AA?6?$AA?$AA@ 10022a18     LIBCMT:crt0msg.obj
 0002:00001a20       ??_C@_1BO@BKOMIGKJ@?$AAr?$AAu?$AAn?$AAt?$AAi?$AAm?$AAe?$AA?5?$AAe?$AAr?$AAr?$AAo?$AAr?$AA?5?$AA?$AA@ 10022a20     LIBCMT:crt0msg.obj
 0002:00001a40       ??_C@_1DE@JNGNBFGO@?$AAR?$AAu?$AAn?$AAt?$AAi?$AAm?$AAe?$AA?5?$AAE?$AAr?$AAr?$AAo?$AAr?$AA?$CB?$AA?6?$AA?6?$AAP?$AAr?$AAo?$AAg?$AAr?$AAa?$AAm?$AA?3?$AA?5?$AA?$AA@ 10022a40     LIBCMT:crt0msg.obj
 0002:00001a74       ??_C@_03KHJOGHMM@exp?$AA@  10022a74     LIBCMT:fpexcept.obj
 0002:00001a78       ??_C@_03JGHBODFD@pow?$AA@  10022a78     LIBCMT:fpexcept.obj
 0002:00001a7c       ??_C@_03MGHMBJCF@log?$AA@  10022a7c     LIBCMT:fpexcept.obj
 0002:00001a80       ??_C@_05HGHHAHAP@log10?$AA@ 10022a80     LIBCMT:fpexcept.obj
 0002:00001a88       ??_C@_04COOMCNPB@sinh?$AA@ 10022a88     LIBCMT:fpexcept.obj
 0002:00001a90       ??_C@_04HPJJNFIM@cosh?$AA@ 10022a90     LIBCMT:fpexcept.obj
 0002:00001a98       ??_C@_04FJHINJAO@tanh?$AA@ 10022a98     LIBCMT:fpexcept.obj
 0002:00001aa0       ??_C@_04FIHNOPOL@asin?$AA@ 10022aa0     LIBCMT:fpexcept.obj
 0002:00001aa8       ??_C@_04PDIFKINK@acos?$AA@ 10022aa8     LIBCMT:fpexcept.obj
 0002:00001ab0       ??_C@_04MLLJIGOK@atan?$AA@ 10022ab0     LIBCMT:fpexcept.obj
 0002:00001ab8       ??_C@_05KNGEOGJB@atan2?$AA@ 10022ab8     LIBCMT:fpexcept.obj
 0002:00001ac0       ??_C@_04EIAKFFMI@sqrt?$AA@ 10022ac0     LIBCMT:fpexcept.obj
 0002:00001ac8       ??_C@_03BLEJJJBH@sin?$AA@  10022ac8     LIBCMT:fpexcept.obj
 0002:00001acc       ??_C@_03LALBNOCG@cos?$AA@  10022acc     LIBCMT:fpexcept.obj
 0002:00001ad0       ??_C@_03IIINPABG@tan?$AA@  10022ad0     LIBCMT:fpexcept.obj
 0002:00001ad4       ??_C@_04GFPJNGEK@ceil?$AA@ 10022ad4     LIBCMT:fpexcept.obj
 0002:00001adc       ??_C@_05PBJFFIGL@floor?$AA@ 10022adc     LIBCMT:fpexcept.obj
 0002:00001ae4       ??_C@_04ODHECPBC@fabs?$AA@ 10022ae4     LIBCMT:fpexcept.obj
 0002:00001aec       ??_C@_04EHEDPDJG@modf?$AA@ 10022aec     LIBCMT:fpexcept.obj
 0002:00001af4       ??_C@_05CEJMAHNP@ldexp?$AA@ 10022af4     LIBCMT:fpexcept.obj
 0002:00001afc       ??_C@_05KBKMEMPO@_cabs?$AA@ 10022afc     LIBCMT:fpexcept.obj
 0002:00001b04       ??_C@_06MEIMCGCF@_hypot?$AA@ 10022b04     LIBCMT:fpexcept.obj
 0002:00001b0c       ??_C@_04KEPJIHGP@fmod?$AA@ 10022b0c     LIBCMT:fpexcept.obj
 0002:00001b14       ??_C@_05GKKHEGJL@frexp?$AA@ 10022b14     LIBCMT:fpexcept.obj
 0002:00001b1c       ??_C@_03MJLDFKDL@_y0?$AA@  10022b1c     LIBCMT:fpexcept.obj
 0002:00001b20       ??_C@_03NAKIGLHK@_y1?$AA@  10022b20     LIBCMT:fpexcept.obj
 0002:00001b24       ??_C@_03ONILCKOB@_yn?$AA@  10022b24     LIBCMT:fpexcept.obj
 0002:00001b28       ??_C@_05JGDBENOH@_logb?$AA@ 10022b28     LIBCMT:fpexcept.obj
 0002:00001b30       ??_C@_0L@KDOEJCKC@_nextafter?$AA@ 10022b30     LIBCMT:fpexcept.obj
 0002:00001b4c       ??_C@_1M@HPNHIDJI@?$AAj?$AAa?$AA?9?$AAJ?$AAP?$AA?$AA@ 10022b4c     LIBCMT:mbctype.obj
 0002:00001b58       ??_C@_1M@BIBDDEMK@?$AAz?$AAh?$AA?9?$AAC?$AAN?$AA?$AA@ 10022b58     LIBCMT:mbctype.obj
 0002:00001b64       ??_C@_1M@JLOOOEGK@?$AAk?$AAo?$AA?9?$AAK?$AAR?$AA?$AA@ 10022b64     LIBCMT:mbctype.obj
 0002:00001b70       ??_C@_1M@CLNBBOPM@?$AAz?$AAh?$AA?9?$AAT?$AAW?$AA?$AA@ 10022b70     LIBCMT:mbctype.obj
 0002:00001b7c       ??_C@_03KOEHGMDN@Sun?$AA@  10022b7c     LIBCMT:nlsdata.obj
 0002:00001b80       ??_C@_03PDAGKDH@Mon?$AA@   10022b80     LIBCMT:nlsdata.obj
 0002:00001b84       ??_C@_03NAGEINEP@Tue?$AA@  10022b84     LIBCMT:nlsdata.obj
 0002:00001b88       ??_C@_03MHOMLAJA@Wed?$AA@  10022b88     LIBCMT:nlsdata.obj
 0002:00001b8c       ??_C@_03IOFIKPDN@Thu?$AA@  10022b8c     LIBCMT:nlsdata.obj
 0002:00001b90       ??_C@_03IDIOELNC@Fri?$AA@  10022b90     LIBCMT:nlsdata.obj
 0002:00001b94       ??_C@_03FEFJNEK@Sat?$AA@   10022b94     LIBCMT:nlsdata.obj
 0002:00001b98       ??_C@_06OOPIFAJ@Sunday?$AA@ 10022b98     LIBCMT:nlsdata.obj
 0002:00001ba0       ??_C@_06JLEDEDGH@Monday?$AA@ 10022ba0     LIBCMT:nlsdata.obj
 0002:00001ba8       ??_C@_07BAAGCFCM@Tuesday?$AA@ 10022ba8     LIBCMT:nlsdata.obj
 0002:00001bb0       ??_C@_09DLIGFAKA@Wednesday?$AA@ 10022bb0     LIBCMT:nlsdata.obj
 0002:00001bbc       ??_C@_08HACCIKIA@Thursday?$AA@ 10022bbc     LIBCMT:nlsdata.obj
 0002:00001bc8       ??_C@_06JECMNKMI@Friday?$AA@ 10022bc8     LIBCMT:nlsdata.obj
 0002:00001bd0       ??_C@_08INBOOONO@Saturday?$AA@ 10022bd0     LIBCMT:nlsdata.obj
 0002:00001bdc       ??_C@_03JIHJHPIE@Jan?$AA@  10022bdc     LIBCMT:nlsdata.obj
 0002:00001be0       ??_C@_03HJBDCHOM@Feb?$AA@  10022be0     LIBCMT:nlsdata.obj
 0002:00001be4       ??_C@_03ODNJBKGA@Mar?$AA@  10022be4     LIBCMT:nlsdata.obj
 0002:00001be8       ??_C@_03LEOLGMJP@Apr?$AA@  10022be8     LIBCMT:nlsdata.obj
 0002:00001bec       ??_C@_03CNMDKL@May?$AA@    10022bec     LIBCMT:nlsdata.obj
 0002:00001bf0       ??_C@_03IDFGHECI@Jun?$AA@  10022bf0     LIBCMT:nlsdata.obj
 0002:00001bf4       ??_C@_03LBGABGKK@Jul?$AA@  10022bf4     LIBCMT:nlsdata.obj
 0002:00001bf8       ??_C@_03IFJFEIGA@Aug?$AA@  10022bf8     LIBCMT:nlsdata.obj
 0002:00001bfc       ??_C@_03GGCAPAJC@Sep?$AA@  10022bfc     LIBCMT:nlsdata.obj
 0002:00001c00       ??_C@_03BMAOKBAD@Oct?$AA@  10022c00     LIBCMT:nlsdata.obj
 0002:00001c04       ??_C@_03JPJOFNIA@Nov?$AA@  10022c04     LIBCMT:nlsdata.obj
 0002:00001c08       ??_C@_03MKABNOCG@Dec?$AA@  10022c08     LIBCMT:nlsdata.obj
 0002:00001c0c       ??_C@_07CGJPFGJA@January?$AA@ 10022c0c     LIBCMT:nlsdata.obj
 0002:00001c14       ??_C@_08GNJGEPFN@February?$AA@ 10022c14     LIBCMT:nlsdata.obj
 0002:00001c20       ??_C@_05HPCKOFNC@March?$AA@ 10022c20     LIBCMT:nlsdata.obj
 0002:00001c28       ??_C@_05DMJDNLEJ@April?$AA@ 10022c28     LIBCMT:nlsdata.obj
 0002:00001c30       ??_C@_04CNLMGBGM@June?$AA@ 10022c30     LIBCMT:nlsdata.obj
 0002:00001c38       ??_C@_04MIEPOIFP@July?$AA@ 10022c38     LIBCMT:nlsdata.obj
 0002:00001c40       ??_C@_06LBBHFDDG@August?$AA@ 10022c40     LIBCMT:nlsdata.obj
 0002:00001c48       ??_C@_09BHHEALKD@September?$AA@ 10022c48     LIBCMT:nlsdata.obj
 0002:00001c54       ??_C@_07JJNFCEND@October?$AA@ 10022c54     LIBCMT:nlsdata.obj
 0002:00001c5c       ??_C@_08HCHEGEOA@November?$AA@ 10022c5c     LIBCMT:nlsdata.obj
 0002:00001c68       ??_C@_08EDHMEBNP@December?$AA@ 10022c68     LIBCMT:nlsdata.obj
 0002:00001c74       ??_C@_02DEDBPAFC@AM?$AA@   10022c74     LIBCMT:nlsdata.obj
 0002:00001c78       ??_C@_02CJNFDJBF@PM?$AA@   10022c78     LIBCMT:nlsdata.obj
 0002:00001c7c       ??_C@_08BPBNCDIB@MM?1dd?1yy?$AA@ 10022c7c     LIBCMT:nlsdata.obj
 0002:00001c88       ??_C@_0BE@CKGJFCPC@dddd?0?5MMMM?5dd?0?5yyyy?$AA@ 10022c88     LIBCMT:nlsdata.obj
 0002:00001c9c       ??_C@_08JCCMCCIL@HH?3mm?3ss?$AA@ 10022c9c     LIBCMT:nlsdata.obj
 0002:00001ca8       ??_C@_17MBGCMIPB@?$AAS?$AAu?$AAn?$AA?$AA@ 10022ca8     LIBCMT:nlsdata.obj
 0002:00001cb0       ??_C@_17KBOMKBF@?$AAM?$AAo?$AAn?$AA?$AA@ 10022cb0     LIBCMT:nlsdata.obj
 0002:00001cb8       ??_C@_17BMKGEGOJ@?$AAT?$AAu?$AAe?$AA?$AA@ 10022cb8     LIBCMT:nlsdata.obj
 0002:00001cc0       ??_C@_17CJEDCEPE@?$AAW?$AAe?$AAd?$AA?$AA@ 10022cc0     LIBCMT:nlsdata.obj
 0002:00001cc8       ??_C@_17PDPHAADD@?$AAT?$AAh?$AAu?$AA?$AA@ 10022cc8     LIBCMT:nlsdata.obj
 0002:00001cd0       ??_C@_17HFOLPPLP@?$AAF?$AAr?$AAi?$AA?$AA@ 10022cd0     LIBCMT:nlsdata.obj
 0002:00001cd8       ??_C@_17GGIBDPIH@?$AAS?$AAa?$AAt?$AA?$AA@ 10022cd8     LIBCMT:nlsdata.obj
 0002:00001ce0       ??_C@_1O@IHNHDHPB@?$AAS?$AAu?$AAn?$AAd?$AAa?$AAy?$AA?$AA@ 10022ce0     LIBCMT:nlsdata.obj
 0002:00001cf0       ??_C@_1O@MMNBFLIA@?$AAM?$AAo?$AAn?$AAd?$AAa?$AAy?$AA?$AA@ 10022cf0     LIBCMT:nlsdata.obj
 0002:00001d00       ??_C@_1BA@ENFBFFEK@?$AAT?$AAu?$AAe?$AAs?$AAd?$AAa?$AAy?$AA?$AA@ 10022d00     LIBCMT:nlsdata.obj
 0002:00001d10       ??_C@_1BE@EBOGMDOH@?$AAW?$AAe?$AAd?$AAn?$AAe?$AAs?$AAd?$AAa?$AAy?$AA?$AA@ 10022d10     LIBCMT:nlsdata.obj
 0002:00001d24       ??_C@_1BC@HHMNLIHE@?$AAT?$AAh?$AAu?$AAr?$AAs?$AAd?$AAa?$AAy?$AA?$AA@ 10022d24     LIBCMT:nlsdata.obj
 0002:00001d38       ??_C@_1O@PDICJHAG@?$AAF?$AAr?$AAi?$AAd?$AAa?$AAy?$AA?$AA@ 10022d38     LIBCMT:nlsdata.obj
 0002:00001d48       ??_C@_1BC@ENMNNPAJ@?$AAS?$AAa?$AAt?$AAu?$AAr?$AAd?$AAa?$AAy?$AA?$AA@ 10022d48     LIBCMT:nlsdata.obj
 0002:00001d5c       ??_C@_17DKNBKCHM@?$AAJ?$AAa?$AAn?$AA?$AA@ 10022d5c     LIBCMT:nlsdata.obj
 0002:00001d64       ??_C@_17LMDJEKJN@?$AAF?$AAe?$AAb?$AA?$AA@ 10022d64     LIBCMT:nlsdata.obj
 0002:00001d6c       ??_C@_17CKNLEDEC@?$AAM?$AAa?$AAr?$AA?$AA@ 10022d6c     LIBCMT:nlsdata.obj
 0002:00001d74       ??_C@_17LFPOIHDD@?$AAA?$AAp?$AAr?$AA?$AA@ 10022d74     LIBCMT:nlsdata.obj
 0002:00001d7c       ??_C@_17PNNKMEED@?$AAM?$AAa?$AAy?$AA?$AA@ 10022d7c     LIBCMT:nlsdata.obj
 0002:00001d84       ??_C@_17KCJGOCPB@?$AAJ?$AAu?$AAn?$AA?$AA@ 10022d84     LIBCMT:nlsdata.obj
 0002:00001d8c       ??_C@_17IJPCKHK@?$AAJ?$AAu?$AAl?$AA?$AA@ 10022d8c     LIBCMT:nlsdata.obj
 0002:00001d94       ??_C@_17ICPELBCN@?$AAA?$AAu?$AAg?$AA?$AA@ 10022d94     LIBCMT:nlsdata.obj
 0002:00001d9c       ??_C@_17HCHCOKMG@?$AAS?$AAe?$AAp?$AA?$AA@ 10022d9c     LIBCMT:nlsdata.obj
 0002:00001da4       ??_C@_17FNLKOI@?$AAO?$AAc?$AAt?$AA?$AA@ 10022da4     LIBCMT:nlsdata.obj
 0002:00001dac       ??_C@_17BBDMLCIG@?$AAN?$AAo?$AAv?$AA?$AA@ 10022dac     LIBCMT:nlsdata.obj
 0002:00001db4       ??_C@_17EGKACKIF@?$AAD?$AAe?$AAc?$AA?$AA@ 10022db4     LIBCMT:nlsdata.obj
 0002:00001dbc       ??_C@_1BA@EFMEIEBA@?$AAJ?$AAa?$AAn?$AAu?$AAa?$AAr?$AAy?$AA?$AA@ 10022dbc     LIBCMT:nlsdata.obj
 0002:00001dcc       ??_C@_1BC@JGDDFFAM@?$AAF?$AAe?$AAb?$AAr?$AAu?$AAa?$AAr?$AAy?$AA?$AA@ 10022dcc     LIBCMT:nlsdata.obj
 0002:00001de0       ??_C@_1M@IKEENEDF@?$AAM?$AAa?$AAr?$AAc?$AAh?$AA?$AA@ 10022de0     LIBCMT:nlsdata.obj
 0002:00001dec       ??_C@_1M@GJNLMHFD@?$AAA?$AAp?$AAr?$AAi?$AAl?$AA?$AA@ 10022dec     LIBCMT:nlsdata.obj
 0002:00001df8       ??_C@_19EPFLPGAP@?$AAJ?$AAu?$AAn?$AAe?$AA?$AA@ 10022df8     LIBCMT:nlsdata.obj
 0002:00001e04       ??_C@_19BIFMLPCD@?$AAJ?$AAu?$AAl?$AAy?$AA?$AA@ 10022e04     LIBCMT:nlsdata.obj
 0002:00001e10       ??_C@_1O@PAHLKOAC@?$AAA?$AAu?$AAg?$AAu?$AAs?$AAt?$AA?$AA@ 10022e10     LIBCMT:nlsdata.obj
 0002:00001e20       ??_C@_1BE@DKAAMBJL@?$AAS?$AAe?$AAp?$AAt?$AAe?$AAm?$AAb?$AAe?$AAr?$AA?$AA@ 10022e20     LIBCMT:nlsdata.obj
 0002:00001e34       ??_C@_1BA@EPANDLNG@?$AAO?$AAc?$AAt?$AAo?$AAb?$AAe?$AAr?$AA?$AA@ 10022e34     LIBCMT:nlsdata.obj
 0002:00001e44       ??_C@_1BC@BGLIFPF@?$AAN?$AAo?$AAv?$AAe?$AAm?$AAb?$AAe?$AAr?$AA?$AA@ 10022e44     LIBCMT:nlsdata.obj
 0002:00001e58       ??_C@_1BC@FEMKIFH@?$AAD?$AAe?$AAc?$AAe?$AAm?$AAb?$AAe?$AAr?$AA?$AA@ 10022e58     LIBCMT:nlsdata.obj
 0002:00001e6c       ??_C@_15ODEHAHHF@?$AAA?$AAM?$AA?$AA@ 10022e6c     LIBCMT:nlsdata.obj
 0002:00001e74       ??_C@_15CLMNNGEL@?$AAP?$AAM?$AA?$AA@ 10022e74     LIBCMT:nlsdata.obj
 0002:00001e7c       ??_C@_1BC@IEBCMHCM@?$AAM?$AAM?$AA?1?$AAd?$AAd?$AA?1?$AAy?$AAy?$AA?$AA@ 10022e7c     LIBCMT:nlsdata.obj
 0002:00001e90       ??_C@_1CI@KNAKOEBC@?$AAd?$AAd?$AAd?$AAd?$AA?0?$AA?5?$AAM?$AAM?$AAM?$AAM?$AA?5?$AAd?$AAd?$AA?0?$AA?5?$AAy?$AAy?$AAy?$AAy?$AA?$AA@ 10022e90     LIBCMT:nlsdata.obj
 0002:00001eb8       ??_C@_1BC@GDGBMEMK@?$AAH?$AAH?$AA?3?$AAm?$AAm?$AA?3?$AAs?$AAs?$AA?$AA@ 10022eb8     LIBCMT:nlsdata.obj
 0002:00001ecc       ??_C@_1M@BMHNFIME@?$AAe?$AAn?$AA?9?$AAU?$AAS?$AA?$AA@ 10022ecc     LIBCMT:nlsdata.obj
 0002:00001f58       __XcptActTab               10022f58     LIBCMT:winxfltr.obj
 0002:00001fe8       __XcptActTabCount          10022fe8     LIBCMT:winxfltr.obj
 0002:00001fec       __XcptActTabSize           10022fec     LIBCMT:winxfltr.obj
 0002:00001ff0       __First_FPE_Indx           10022ff0     LIBCMT:winxfltr.obj
 0002:00001ff4       __Num_FPE                  10022ff4     LIBCMT:winxfltr.obj
 0002:00001ff8       ??_C@_1BK@MGMFAEKH@?$AAk?$AAe?$AAr?$AAn?$AAe?$AAl?$AA3?$AA2?$AA?4?$AAd?$AAl?$AAl?$AA?$AA@ 10022ff8     LIBCMT:winapisupp.obj
 0002:00002014       ??_C@_08KNHFBNJ@FlsAlloc?$AA@ 10023014     LIBCMT:winapisupp.obj
 0002:00002020       ??_C@_07PEJMOBNF@FlsFree?$AA@ 10023020     LIBCMT:winapisupp.obj
 0002:00002028       ??_C@_0M@GDNOONDI@FlsGetValue?$AA@ 10023028     LIBCMT:winapisupp.obj
 0002:00002034       ??_C@_0M@JCPCPOEF@FlsSetValue?$AA@ 10023034     LIBCMT:winapisupp.obj
 0002:00002040       ??_C@_0BM@HCFOFFN@InitializeCriticalSectionEx?$AA@ 10023040     LIBCMT:winapisupp.obj
 0002:0000205c       ??_C@_0P@DLHPPCNH@CreateEventExW?$AA@ 1002305c     LIBCMT:winapisupp.obj
 0002:0000206c       ??_C@_0BD@KIEEOEEH@CreateSemaphoreExW?$AA@ 1002306c     LIBCMT:winapisupp.obj
 0002:00002080       ??_C@_0BI@BKLFFAPO@SetThreadStackGuarantee?$AA@ 10023080     LIBCMT:winapisupp.obj
 0002:00002098       ??_C@_0BG@OGFAJCKC@CreateThreadpoolTimer?$AA@ 10023098     LIBCMT:winapisupp.obj
 0002:000020b0       ??_C@_0BD@LPLEMMDI@SetThreadpoolTimer?$AA@ 100230b0     LIBCMT:winapisupp.obj
 0002:000020c4       ??_C@_0CA@FMNJENH@WaitForThreadpoolTimerCallbacks?$AA@ 100230c4     LIBCMT:winapisupp.obj
 0002:000020e4       ??_C@_0BF@DCFCCNOC@CloseThreadpoolTimer?$AA@ 100230e4     LIBCMT:winapisupp.obj
 0002:000020fc       ??_C@_0BF@FLABGKKM@CreateThreadpoolWait?$AA@ 100230fc     LIBCMT:winapisupp.obj
 0002:00002114       ??_C@_0BC@MGCOHNA@SetThreadpoolWait?$AA@ 10023114     LIBCMT:winapisupp.obj
 0002:00002128       ??_C@_0BE@OCIOMIMP@CloseThreadpoolWait?$AA@ 10023128     LIBCMT:winapisupp.obj
 0002:0000213c       ??_C@_0BJ@LKGHFHBO@FlushProcessWriteBuffers?$AA@ 1002313c     LIBCMT:winapisupp.obj
 0002:00002158       ??_C@_0BP@KALKKPMO@FreeLibraryWhenCallbackReturns?$AA@ 10023158     LIBCMT:winapisupp.obj
 0002:00002178       ??_C@_0BK@DFNBACLA@GetCurrentProcessorNumber?$AA@ 10023178     LIBCMT:winapisupp.obj
 0002:00002194       ??_C@_0BP@KHGALBC@GetLogicalProcessorInformation?$AA@ 10023194     LIBCMT:winapisupp.obj
 0002:000021b4       ??_C@_0BE@FKKLLFLM@CreateSymbolicLinkW?$AA@ 100231b4     LIBCMT:winapisupp.obj
 0002:000021c8       ??_C@_0BJ@OHNKDLIJ@SetDefaultDllDirectories?$AA@ 100231c8     LIBCMT:winapisupp.obj
 0002:000021e4       ??_C@_0BE@LJANKFHF@EnumSystemLocalesEx?$AA@ 100231e4     LIBCMT:winapisupp.obj
 0002:000021f8       ??_C@_0BA@IHGNDAEB@CompareStringEx?$AA@ 100231f8     LIBCMT:winapisupp.obj
 0002:00002208       ??_C@_0BA@EPCJIIPD@GetDateFormatEx?$AA@ 10023208     LIBCMT:winapisupp.obj
 0002:00002218       ??_C@_0BA@ONOKGCMP@GetLocaleInfoEx?$AA@ 10023218     LIBCMT:winapisupp.obj
 0002:00002228       ??_C@_0BA@CIJJKCJJ@GetTimeFormatEx?$AA@ 10023228     LIBCMT:winapisupp.obj
 0002:00002238       ??_C@_0BJ@PBCCBIPI@GetUserDefaultLocaleName?$AA@ 10023238     LIBCMT:winapisupp.obj
 0002:00002254       ??_C@_0BC@CELBKLLA@IsValidLocaleName?$AA@ 10023254     LIBCMT:winapisupp.obj
 0002:00002268       ??_C@_0O@KKBNKAPF@LCMapStringEx?$AA@ 10023268     LIBCMT:winapisupp.obj
 0002:00002278       ??_C@_0BE@JOGNEJCI@GetCurrentPackageId?$AA@ 10023278     LIBCMT:winapisupp.obj
 0002:0000228c       ??_C@_0P@CDHHOHKP@GetTickCount64?$AA@ 1002328c     LIBCMT:winapisupp.obj
 0002:0000229c       ??_C@_0BO@KPCLFDJJ@GetFileInformationByHandleExW?$AA@ 1002329c     LIBCMT:winapisupp.obj
 0002:000022bc       ??_C@_0BM@MHIDLABK@SetFileInformationByHandleW?$AA@ 100232bc     LIBCMT:winapisupp.obj
 0002:000022d8       __pDestructExceptionObject 100232d8     LIBCMT:frame.obj
 0002:000022dc       ??_C@_05KLBDPFGC@e?$CL000?$AA@ 100232dc     LIBCMT:cvt.obj
 0002:000022e8       _LcidToLocaleNameTable     100232e8     LIBCMT:winapinls.obj
 0002:00002a08       _LocaleNameToIndexTable    10023a08     LIBCMT:winapinls.obj
 0002:00003128       ??_C@_15EMKDOKLE@?$AAa?$AAr?$AA?$AA@ 10024128     LIBCMT:winapinls.obj
 0002:00003130       ??_C@_15KNPADPLH@?$AAb?$AAg?$AA?$AA@ 10024130     LIBCMT:winapinls.obj
 0002:00003138       ??_C@_15EDMHLDMO@?$AAc?$AAa?$AA?$AA@ 10024138     LIBCMT:winapinls.obj
 0002:00003140       ??_C@_1O@BPEAJADD@?$AAz?$AAh?$AA?9?$AAC?$AAH?$AAS?$AA?$AA@ 10024140     LIBCMT:winapinls.obj
 0002:00003150       ??_C@_15LJNHCMNK@?$AAc?$AAs?$AA?$AA@ 10024150     LIBCMT:winapinls.obj
 0002:00003158       ??_C@_15FOMCIDHG@?$AAd?$AAa?$AA?$AA@ 10024158     LIBCMT:winapinls.obj
 0002:00003160       ??_C@_15NBKABECB@?$AAd?$AAe?$AA?$AA@ 10024160     LIBCMT:winapinls.obj
 0002:00003168       ??_C@_15GHPEIIAO@?$AAe?$AAl?$AA?$AA@ 10024168     LIBCMT:winapinls.obj
 0002:00003170       ??_C@_15MNPNEAIF@?$AAe?$AAn?$AA?$AA@ 10024170     LIBCMT:winapinls.obj
 0002:00003178       ??_C@_15GPIOMPMH@?$AAe?$AAs?$AA?$AA@ 10024178     LIBCMT:winapinls.obj
 0002:00003180       ??_C@_15NGLOAKJC@?$AAf?$AAi?$AA?$AA@ 10024180     LIBCMT:winapinls.obj
 0002:00003188       ??_C@_15FBKGNKAM@?$AAf?$AAr?$AA?$AA@ 10024188     LIBCMT:winapinls.obj
 0002:00003190       ??_C@_15KGGCNEFK@?$AAh?$AAe?$AA?$AA@ 10024190     LIBCMT:winapinls.obj
 0002:00003198       ??_C@_15PGHLIDMF@?$AAh?$AAu?$AA?$AA@ 10024198     LIBCMT:winapinls.obj
 0002:000031a0       ??_C@_15BIEMAPLM@?$AAi?$AAs?$AA?$AA@ 100241a0     LIBCMT:winapinls.obj
 0002:000031a8       ??_C@_15IFJLDHAF@?$AAi?$AAt?$AA?$AA@ 100241a8     LIBCMT:winapinls.obj
 0002:000031b0       ??_C@_15GEMIOCAG@?$AAj?$AAa?$AA?$AA@ 100241b0     LIBCMT:winapinls.obj
 0002:000031b8       ??_C@_15EPELEGJA@?$AAk?$AAo?$AA?$AA@ 100241b8     LIBCMT:winapinls.obj
 0002:000031c0       ??_C@_15NDDHIMN@?$AAn?$AAl?$AA?$AA@ 100241c0     LIBCMT:winapinls.obj
 0002:000031c8       ??_C@_15BPIGNHCD@?$AAn?$AAo?$AA?$AA@ 100241c8     LIBCMT:winapinls.obj
 0002:000031d0       ??_C@_15DEOPBLCG@?$AAp?$AAl?$AA?$AA@ 100241d0     LIBCMT:winapinls.obj
 0002:000031d8       ??_C@_15KBECGEFG@?$AAp?$AAt?$AA?$AA@ 100241d8     LIBCMT:winapinls.obj
 0002:000031e0       ??_C@_15GLJCBFMD@?$AAr?$AAo?$AA?$AA@ 100241e0     LIBCMT:winapinls.obj
 0002:000031e8       ??_C@_15FEDGKCDI@?$AAr?$AAu?$AA?$AA@ 100241e8     LIBCMT:winapinls.obj
 0002:000031f0       ??_C@_15GLKMLLHM@?$AAh?$AAr?$AA?$AA@ 100241f0     LIBCMT:winapinls.obj
 0002:000031f8       ??_C@_15CPKMFBDB@?$AAs?$AAk?$AA?$AA@ 100241f8     LIBCMT:winapinls.obj
 0002:00003200       ??_C@_15BAAIOGMK@?$AAs?$AAq?$AA?$AA@ 10024200     LIBCMT:winapinls.obj
 0002:00003208       ??_C@_15INNPNOHD@?$AAs?$AAv?$AA?$AA@ 10024208     LIBCMT:winapinls.obj
 0002:00003210       ??_C@_15CABMMOGH@?$AAt?$AAh?$AA?$AA@ 10024210     LIBCMT:winapinls.obj
 0002:00003218       ??_C@_15BPLIHJJM@?$AAt?$AAr?$AA?$AA@ 10024218     LIBCMT:winapinls.obj
 0002:00003220       ??_C@_15NEOEKKDJ@?$AAu?$AAr?$AA?$AA@ 10024220     LIBCMT:winapinls.obj
 0002:00003228       ??_C@_15NFICGAJK@?$AAi?$AAd?$AA?$AA@ 10024228     LIBCMT:winapinls.obj
 0002:00003230       ??_C@_15PJPFLCCM@?$AAu?$AAk?$AA?$AA@ 10024230     LIBCMT:winapinls.obj
 0002:00003238       ??_C@_15HPJPHDM@?$AAb?$AAe?$AA?$AA@ 10024238     LIBCMT:winapinls.obj
 0002:00003240       ??_C@_15LCHLGJII@?$AAs?$AAl?$AA?$AA@ 10024240     LIBCMT:winapinls.obj
 0002:00003248       ??_C@_15PCFJPHHO@?$AAe?$AAt?$AA?$AA@ 10024248     LIBCMT:winapinls.obj
 0002:00003250       ??_C@_15HPFPGODN@?$AAl?$AAv?$AA?$AA@ 10024250     LIBCMT:winapinls.obj
 0002:00003258       ??_C@_15NFFGKGLG@?$AAl?$AAt?$AA?$AA@ 10024258     LIBCMT:winapinls.obj
 0002:00003260       ??_C@_15BDAKCCHN@?$AAf?$AAa?$AA?$AA@ 10024260     LIBCMT:winapinls.obj
 0002:00003268       ??_C@_15NFGIAIAJ@?$AAv?$AAi?$AA?$AA@ 10024268     LIBCMT:winapinls.obj
 0002:00003270       ??_C@_15LMKNDMHN@?$AAh?$AAy?$AA?$AA@ 10024270     LIBCMT:winapinls.obj
 0002:00003278       ??_C@_15IJBHMCFL@?$AAa?$AAz?$AA?$AA@ 10024278     LIBCMT:winapinls.obj
 0002:00003280       ??_C@_15EKOFJABL@?$AAe?$AAu?$AA?$AA@ 10024280     LIBCMT:winapinls.obj
 0002:00003288       ??_C@_15BGHADCNK@?$AAm?$AAk?$AA?$AA@ 10024288     LIBCMT:winapinls.obj
 0002:00003290       ??_C@_15JDNICKHM@?$AAa?$AAf?$AA?$AA@ 10024290     LIBCMT:winapinls.obj
 0002:00003298       ??_C@_15KPJEDBKD@?$AAk?$AAa?$AA?$AA@ 10024298     LIBCMT:winapinls.obj
 0002:000032a0       ??_C@_15PDNFFFEO@?$AAf?$AAo?$AA?$AA@ 100242a0     LIBCMT:winapinls.obj
 0002:000032a8       ??_C@_15OMLEGLOC@?$AAh?$AAi?$AA?$AA@ 100242a8     LIBCMT:winapinls.obj
 0002:000032b0       ??_C@_15IDNNENKK@?$AAm?$AAs?$AA?$AA@ 100242b0     LIBCMT:winapinls.obj
 0002:000032b8       ??_C@_15MACJNBMH@?$AAk?$AAk?$AA?$AA@ 100242b8     LIBCMT:winapinls.obj
 0002:000032c0       ??_C@_15DKDJEOND@?$AAk?$AAy?$AA?$AA@ 100242c0     LIBCMT:winapinls.obj
 0002:000032c8       ??_C@_15DFGDLJBG@?$AAs?$AAw?$AA?$AA@ 100242c8     LIBCMT:winapinls.obj
 0002:000032d0       ??_C@_15BBFAICNG@?$AAu?$AAz?$AA?$AA@ 100242d0     LIBCMT:winapinls.obj
 0002:000032d8       ??_C@_15DKNDCGEA@?$AAt?$AAt?$AA?$AA@ 100242d8     LIBCMT:winapinls.obj
 0002:000032e0       ??_C@_15MGIFMDPL@?$AAp?$AAa?$AA?$AA@ 100242e0     LIBCMT:winapinls.obj
 0002:000032e8       ??_C@_15HCNDBBA@?$AAg?$AAu?$AA?$AA@ 100242e8     LIBCMT:winapinls.obj
 0002:000032f0       ??_C@_15FNBEIBON@?$AAt?$AAa?$AA?$AA@ 100242f0     LIBCMT:winapinls.obj
 0002:000032f8       ??_C@_15NCHGBGLK@?$AAt?$AAe?$AA?$AA@ 100242f8     LIBCMT:winapinls.obj
 0002:00003300       ??_C@_15PHPHCBPF@?$AAk?$AAn?$AA?$AA@ 10024300     LIBCMT:winapinls.obj
 0002:00003308       ??_C@_15DLGBCKMP@?$AAm?$AAr?$AA?$AA@ 10024308     LIBCMT:winapinls.obj
 0002:00003310       ??_C@_15EABBLBFF@?$AAs?$AAa?$AA?$AA@ 10024310     LIBCMT:winapinls.obj
 0002:00003318       ??_C@_15CBKOMCOI@?$AAm?$AAn?$AA?$AA@ 10024318     LIBCMT:winapinls.obj
 0002:00003320       ??_C@_15CKDMCJAF@?$AAg?$AAl?$AA?$AA@ 10024320     LIBCMT:winapinls.obj
 0002:00003328       ??_C@_17CNJFBPG@?$AAk?$AAo?$AAk?$AA?$AA@ 10024328     LIBCMT:winapinls.obj
 0002:00003330       ??_C@_17FFBJICPL@?$AAs?$AAy?$AAr?$AA?$AA@ 10024330     LIBCMT:winapinls.obj
 0002:00003338       ??_C@_17KPNDCPAF@?$AAd?$AAi?$AAv?$AA?$AA@ 10024338     LIBCMT:winapinls.obj
 0002:00003340       ??_C@_11LOCGONAA@?$AA?$AA@ 10024340     LIBCMT:winapinls.obj
 0002:00003344       ??_C@_1M@OKAHONE@?$AAa?$AAr?$AA?9?$AAS?$AAA?$AA?$AA@ 10024344     LIBCMT:winapinls.obj
 0002:00003350       ??_C@_1M@FFFIGIGK@?$AAb?$AAg?$AA?9?$AAB?$AAG?$AA?$AA@ 10024350     LIBCMT:winapinls.obj
 0002:0000335c       ??_C@_1M@BJNKEDC@?$AAc?$AAa?$AA?9?$AAE?$AAS?$AA?$AA@ 1002435c     LIBCMT:winapinls.obj
 0002:00003368       ??_C@_1M@IJJHFJHA@?$AAc?$AAs?$AA?9?$AAC?$AAZ?$AA?$AA@ 10024368     LIBCMT:winapinls.obj
 0002:00003374       ??_C@_1M@CLPEOBGI@?$AAd?$AAa?$AA?9?$AAD?$AAK?$AA?$AA@ 10024374     LIBCMT:winapinls.obj
 0002:00003380       ??_C@_1M@MCMADGCB@?$AAd?$AAe?$AA?9?$AAD?$AAE?$AA?$AA@ 10024380     LIBCMT:winapinls.obj
 0002:0000338c       ??_C@_1M@OOCKEMAM@?$AAe?$AAl?$AA?9?$AAG?$AAR?$AA?$AA@ 1002438c     LIBCMT:winapinls.obj
 0002:00003398       ??_C@_1M@DDNJFGID@?$AAf?$AAi?$AA?9?$AAF?$AAI?$AA?$AA@ 10024398     LIBCMT:winapinls.obj
 0002:000033a4       ??_C@_1M@GLIPPMAC@?$AAf?$AAr?$AA?9?$AAF?$AAR?$AA?$AA@ 100243a4     LIBCMT:winapinls.obj
 0002:000033b0       ??_C@_1M@GFMCHPE@?$AAh?$AAe?$AA?9?$AAI?$AAL?$AA?$AA@ 100243b0     LIBCMT:winapinls.obj
 0002:000033bc       ??_C@_1M@MHLPGNKM@?$AAh?$AAu?$AA?9?$AAH?$AAU?$AA?$AA@ 100243bc     LIBCMT:winapinls.obj
 0002:000033c8       ??_C@_1M@LPDDNNPN@?$AAi?$AAs?$AA?9?$AAI?$AAS?$AA?$AA@ 100243c8     LIBCMT:winapinls.obj
 0002:000033d4       ??_C@_1M@MADIPODN@?$AAi?$AAt?$AA?9?$AAI?$AAT?$AA?$AA@ 100243d4     LIBCMT:winapinls.obj
 0002:000033e0       ??_C@_1M@IHBJJGG@?$AAn?$AAl?$AA?9?$AAN?$AAL?$AA?$AA@ 100243e0     LIBCMT:winapinls.obj
 0002:000033ec       ??_C@_1M@EANAGDL@?$AAn?$AAb?$AA?9?$AAN?$AAO?$AA?$AA@ 100243ec     LIBCMT:winapinls.obj
 0002:000033f8       ??_C@_1M@NEIEMEGP@?$AAp?$AAl?$AA?9?$AAP?$AAL?$AA?$AA@ 100243f8     LIBCMT:winapinls.obj
 0002:00003404       ??_C@_1M@BOCFIGEP@?$AAp?$AAt?$AA?9?$AAB?$AAR?$AA?$AA@ 10024404     LIBCMT:winapinls.obj
 0002:00003410       ??_C@_1M@IMPFOPBG@?$AAr?$AAo?$AA?9?$AAR?$AAO?$AA?$AA@ 10024410     LIBCMT:winapinls.obj
 0002:0000341c       ??_C@_1M@IDNNEJMM@?$AAr?$AAu?$AA?9?$AAR?$AAU?$AA?$AA@ 1002441c     LIBCMT:winapinls.obj
 0002:00003428       ??_C@_1M@LILEEOGM@?$AAh?$AAr?$AA?9?$AAH?$AAR?$AA?$AA@ 10024428     LIBCMT:winapinls.obj
 0002:00003434       ??_C@_1M@FKIFEHPB@?$AAs?$AAk?$AA?9?$AAS?$AAK?$AA?$AA@ 10024434     LIBCMT:winapinls.obj
 0002:00003440       ??_C@_1M@LJMAMNPJ@?$AAs?$AAq?$AA?9?$AAA?$AAL?$AA?$AA@ 10024440     LIBCMT:winapinls.obj
 0002:0000344c       ??_C@_1M@GIAKDKJK@?$AAs?$AAv?$AA?9?$AAS?$AAE?$AA?$AA@ 1002444c     LIBCMT:winapinls.obj
 0002:00003458       ??_C@_1M@MKJKIKCL@?$AAt?$AAh?$AA?9?$AAT?$AAH?$AA?$AA@ 10024458     LIBCMT:winapinls.obj
 0002:00003464       ??_C@_1M@MFLCCMPB@?$AAt?$AAr?$AA?9?$AAT?$AAR?$AA?$AA@ 10024464     LIBCMT:winapinls.obj
 0002:00003470       ??_C@_1M@OIJHDKJN@?$AAu?$AAr?$AA?9?$AAP?$AAK?$AA?$AA@ 10024470     LIBCMT:winapinls.obj
 0002:0000347c       ??_C@_1M@LHIPCIEK@?$AAi?$AAd?$AA?9?$AAI?$AAD?$AA?$AA@ 1002447c     LIBCMT:winapinls.obj
 0002:00003488       ??_C@_1M@MFMOBGI@?$AAu?$AAk?$AA?9?$AAU?$AAA?$AA?$AA@ 10024488     LIBCMT:winapinls.obj
 0002:00003494       ??_C@_1M@OBGLJIPL@?$AAb?$AAe?$AA?9?$AAB?$AAY?$AA?$AA@ 10024494     LIBCMT:winapinls.obj
 0002:000034a0       ??_C@_1M@BCFAJEAD@?$AAs?$AAl?$AA?9?$AAS?$AAI?$AA?$AA@ 100244a0     LIBCMT:winapinls.obj
 0002:000034ac       ??_C@_1M@FKFFEDDN@?$AAe?$AAt?$AA?9?$AAE?$AAE?$AA?$AA@ 100244ac     LIBCMT:winapinls.obj
 0002:000034b8       ??_C@_1M@KGKKAACI@?$AAl?$AAv?$AA?9?$AAL?$AAV?$AA?$AA@ 100244b8     LIBCMT:winapinls.obj
 0002:000034c4       ??_C@_1M@IFGBIJO@?$AAl?$AAt?$AA?9?$AAL?$AAT?$AA?$AA@ 100244c4     LIBCMT:winapinls.obj
 0002:000034d0       ??_C@_1M@FGEAHEDM@?$AAf?$AAa?$AA?9?$AAI?$AAR?$AA?$AA@ 100244d0     LIBCMT:winapinls.obj
 0002:000034dc       ??_C@_1M@KBMAIBFN@?$AAv?$AAi?$AA?9?$AAV?$AAN?$AA?$AA@ 100244dc     LIBCMT:winapinls.obj
 0002:000034e8       ??_C@_1M@GPCBKDJK@?$AAh?$AAy?$AA?9?$AAA?$AAM?$AA?$AA@ 100244e8     LIBCMT:winapinls.obj
 0002:000034f4       ??_C@_1BG@BECMDDJB@?$AAa?$AAz?$AA?9?$AAA?$AAZ?$AA?9?$AAL?$AAa?$AAt?$AAn?$AA?$AA@ 100244f4     LIBCMT:winapinls.obj
 0002:0000350c       ??_C@_1M@MAOFCAEA@?$AAe?$AAu?$AA?9?$AAE?$AAS?$AA?$AA@ 1002450c     LIBCMT:winapinls.obj
 0002:00003518       ??_C@_1M@IGHABKPI@?$AAm?$AAk?$AA?9?$AAM?$AAK?$AA?$AA@ 10024518     LIBCMT:winapinls.obj
 0002:00003524       ??_C@_1M@IAIGNEJG@?$AAt?$AAn?$AA?9?$AAZ?$AAA?$AA?$AA@ 10024524     LIBCMT:winapinls.obj
 0002:00003530       ??_C@_1M@IIJCOJFA@?$AAx?$AAh?$AA?9?$AAZ?$AAA?$AA?$AA@ 10024530     LIBCMT:winapinls.obj
 0002:0000353c       ??_C@_1M@LGPJHNJH@?$AAz?$AAu?$AA?9?$AAZ?$AAA?$AA?$AA@ 1002453c     LIBCMT:winapinls.obj
 0002:00003548       ??_C@_1M@HOKAOIO@?$AAa?$AAf?$AA?9?$AAZ?$AAA?$AA?$AA@ 10024548     LIBCMT:winapinls.obj
 0002:00003554       ??_C@_1M@DPCLHLIE@?$AAk?$AAa?$AA?9?$AAG?$AAE?$AA?$AA@ 10024554     LIBCMT:winapinls.obj
 0002:00003560       ??_C@_1M@BLKMHJBI@?$AAf?$AAo?$AA?9?$AAF?$AAO?$AA?$AA@ 10024560     LIBCMT:winapinls.obj
 0002:0000356c       ??_C@_1M@LGGJAPPB@?$AAh?$AAi?$AA?9?$AAI?$AAN?$AA?$AA@ 1002456c     LIBCMT:winapinls.obj
 0002:00003578       ??_C@_1M@FIKPIHFE@?$AAm?$AAt?$AA?9?$AAM?$AAT?$AA?$AA@ 10024578     LIBCMT:winapinls.obj
 0002:00003584       ??_C@_1M@HEGGPBFA@?$AAs?$AAe?$AA?9?$AAN?$AAO?$AA?$AA@ 10024584     LIBCMT:winapinls.obj
 0002:00003590       ??_C@_1M@EIBJEEPA@?$AAm?$AAs?$AA?9?$AAM?$AAY?$AA?$AA@ 10024590     LIBCMT:winapinls.obj
 0002:0000359c       ??_C@_1M@FHLBGMPP@?$AAk?$AAk?$AA?9?$AAK?$AAZ?$AA?$AA@ 1002459c     LIBCMT:winapinls.obj
 0002:000035a8       ??_C@_1M@NGJJLCGI@?$AAk?$AAy?$AA?9?$AAK?$AAG?$AA?$AA@ 100245a8     LIBCMT:winapinls.obj
 0002:000035b4       ??_C@_1M@GIENNBFC@?$AAs?$AAw?$AA?9?$AAK?$AAE?$AA?$AA@ 100245b4     LIBCMT:winapinls.obj
 0002:000035c0       ??_C@_1BG@NDGMJIMJ@?$AAu?$AAz?$AA?9?$AAU?$AAZ?$AA?9?$AAL?$AAa?$AAt?$AAn?$AA?$AA@ 100245c0     LIBCMT:winapinls.obj
 0002:000035d8       ??_C@_1M@IDCCIHBC@?$AAt?$AAt?$AA?9?$AAR?$AAU?$AA?$AA@ 100245d8     LIBCMT:winapinls.obj
 0002:000035e4       ??_C@_1M@LOICPMOJ@?$AAb?$AAn?$AA?9?$AAI?$AAN?$AA?$AA@ 100245e4     LIBCMT:winapinls.obj
 0002:000035f0       ??_C@_1M@KPKKNEAH@?$AAp?$AAa?$AA?9?$AAI?$AAN?$AA?$AA@ 100245f0     LIBCMT:winapinls.obj
 0002:000035fc       ??_C@_1M@PJGPPBOG@?$AAg?$AAu?$AA?9?$AAI?$AAN?$AA?$AA@ 100245fc     LIBCMT:winapinls.obj
 0002:00003608       ??_C@_1M@KMKMOPHI@?$AAt?$AAa?$AA?9?$AAI?$AAN?$AA?$AA@ 10024608     LIBCMT:winapinls.obj
 0002:00003614       ??_C@_1M@KFEHEPAC@?$AAt?$AAe?$AA?9?$AAI?$AAN?$AA?$AA@ 10024614     LIBCMT:winapinls.obj
 0002:00003620       ??_C@_1M@CDCLMGHI@?$AAk?$AAn?$AA?9?$AAI?$AAN?$AA?$AA@ 10024620     LIBCMT:winapinls.obj
 0002:0000362c       ??_C@_1M@MIODLDKF@?$AAm?$AAl?$AA?9?$AAI?$AAN?$AA?$AA@ 1002462c     LIBCMT:winapinls.obj
 0002:00003638       ??_C@_1M@PBIEACPO@?$AAm?$AAr?$AA?9?$AAI?$AAN?$AA?$AA@ 10024638     LIBCMT:winapinls.obj
 0002:00003644       ??_C@_1M@NIDEAGPH@?$AAs?$AAa?$AA?9?$AAI?$AAN?$AA?$AA@ 10024644     LIBCMT:winapinls.obj
 0002:00003650       ??_C@_1M@FHIHCBIO@?$AAm?$AAn?$AA?9?$AAM?$AAN?$AA?$AA@ 10024650     LIBCMT:winapinls.obj
 0002:0000365c       ??_C@_1M@JAIJPENP@?$AAc?$AAy?$AA?9?$AAG?$AAB?$AA?$AA@ 1002465c     LIBCMT:winapinls.obj
 0002:00003668       ??_C@_1M@PHGFBEPN@?$AAg?$AAl?$AA?9?$AAE?$AAS?$AA?$AA@ 10024668     LIBCMT:winapinls.obj
 0002:00003674       ??_C@_1O@KPIPDNCP@?$AAk?$AAo?$AAk?$AA?9?$AAI?$AAN?$AA?$AA@ 10024674     LIBCMT:winapinls.obj
 0002:00003684       ??_C@_1O@KNHJLDJA@?$AAs?$AAy?$AAr?$AA?9?$AAS?$AAY?$AA?$AA@ 10024684     LIBCMT:winapinls.obj
 0002:00003694       ??_C@_1O@MKEKBLAH@?$AAd?$AAi?$AAv?$AA?9?$AAM?$AAV?$AA?$AA@ 10024694     LIBCMT:winapinls.obj
 0002:000036a4       ??_C@_1O@OHDCKDDF@?$AAq?$AAu?$AAz?$AA?9?$AAB?$AAO?$AA?$AA@ 100246a4     LIBCMT:winapinls.obj
 0002:000036b4       ??_C@_1M@LEPJNLFD@?$AAn?$AAs?$AA?9?$AAZ?$AAA?$AA?$AA@ 100246b4     LIBCMT:winapinls.obj
 0002:000036c0       ??_C@_1M@OMLEIIJB@?$AAm?$AAi?$AA?9?$AAN?$AAZ?$AA?$AA@ 100246c0     LIBCMT:winapinls.obj
 0002:000036cc       ??_C@_1M@PMPEAILG@?$AAa?$AAr?$AA?9?$AAI?$AAQ?$AA?$AA@ 100246cc     LIBCMT:winapinls.obj
 0002:000036d8       ??_C@_1M@CNKPNOEE@?$AAd?$AAe?$AA?9?$AAC?$AAH?$AA?$AA@ 100246d8     LIBCMT:winapinls.obj
 0002:000036e4       ??_C@_1M@LKMGMLKO@?$AAe?$AAn?$AA?9?$AAG?$AAB?$AA?$AA@ 100246e4     LIBCMT:winapinls.obj
 0002:000036f0       ??_C@_1M@PGKJFFGL@?$AAe?$AAs?$AA?9?$AAM?$AAX?$AA?$AA@ 100246f0     LIBCMT:winapinls.obj
 0002:000036fc       ??_C@_1M@DNNANBDC@?$AAf?$AAr?$AA?9?$AAB?$AAE?$AA?$AA@ 100246fc     LIBCMT:winapinls.obj
 0002:00003708       ??_C@_1M@HLGMDFHM@?$AAi?$AAt?$AA?9?$AAC?$AAH?$AA?$AA@ 10024708     LIBCMT:winapinls.obj
 0002:00003714       ??_C@_1M@CLLBGJH@?$AAn?$AAl?$AA?9?$AAB?$AAE?$AA?$AA@ 10024714     LIBCMT:winapinls.obj
 0002:00003720       ??_C@_1M@BODBOGLF@?$AAn?$AAn?$AA?9?$AAN?$AAO?$AA?$AA@ 10024720     LIBCMT:winapinls.obj
 0002:0000372c       ??_C@_1M@HFFAHKAD@?$AAp?$AAt?$AA?9?$AAP?$AAT?$AA?$AA@ 1002472c     LIBCMT:winapinls.obj
 0002:00003738       ??_C@_1BG@LNOAKHIE@?$AAs?$AAr?$AA?9?$AAS?$AAP?$AA?9?$AAL?$AAa?$AAt?$AAn?$AA?$AA@ 10024738     LIBCMT:winapinls.obj
 0002:00003750       ??_C@_1M@HBMHBGAK@?$AAs?$AAv?$AA?9?$AAF?$AAI?$AA?$AA@ 10024750     LIBCMT:winapinls.obj
 0002:0000375c       ??_C@_1BG@DGCJGJBE@?$AAa?$AAz?$AA?9?$AAA?$AAZ?$AA?9?$AAC?$AAy?$AAr?$AAl?$AA?$AA@ 1002475c     LIBCMT:winapinls.obj
 0002:00003774       ??_C@_1M@KEJDAAHB@?$AAs?$AAe?$AA?9?$AAS?$AAE?$AA?$AA@ 10024774     LIBCMT:winapinls.obj
 0002:00003780       ??_C@_1M@HEIBJJAD@?$AAm?$AAs?$AA?9?$AAB?$AAN?$AA?$AA@ 10024780     LIBCMT:winapinls.obj
 0002:0000378c       ??_C@_1BG@PBGJMCEM@?$AAu?$AAz?$AA?9?$AAU?$AAZ?$AA?9?$AAC?$AAy?$AAr?$AAl?$AA?$AA@ 1002478c     LIBCMT:winapinls.obj
 0002:000037a4       ??_C@_1O@LAOBCMDF@?$AAq?$AAu?$AAz?$AA?9?$AAE?$AAC?$AA?$AA@ 100247a4     LIBCMT:winapinls.obj
 0002:000037b4       ??_C@_1M@POEEMAIO@?$AAa?$AAr?$AA?9?$AAE?$AAG?$AA?$AA@ 100247b4     LIBCMT:winapinls.obj
 0002:000037c0       ??_C@_1M@EFAKDEDL@?$AAz?$AAh?$AA?9?$AAH?$AAK?$AA?$AA@ 100247c0     LIBCMT:winapinls.obj
 0002:000037cc       ??_C@_1M@HKKIJHGI@?$AAd?$AAe?$AA?9?$AAA?$AAT?$AA?$AA@ 100247cc     LIBCMT:winapinls.obj
 0002:000037d8       ??_C@_1M@KBFBEHJF@?$AAe?$AAn?$AA?9?$AAA?$AAU?$AA?$AA@ 100247d8     LIBCMT:winapinls.obj
 0002:000037e4       ??_C@_1M@MNPLFAAH@?$AAe?$AAs?$AA?9?$AAE?$AAS?$AA?$AA@ 100247e4     LIBCMT:winapinls.obj
 0002:000037f0       ??_C@_1M@HJOOJFMA@?$AAf?$AAr?$AA?9?$AAC?$AAA?$AA?$AA@ 100247f0     LIBCMT:winapinls.obj
 0002:000037fc       ??_C@_1BG@JPOFPNAB@?$AAs?$AAr?$AA?9?$AAS?$AAP?$AA?9?$AAC?$AAy?$AAr?$AAl?$AA?$AA@ 100247fc     LIBCMT:winapinls.obj
 0002:00003814       ??_C@_1M@LNFOCMOB@?$AAs?$AAe?$AA?9?$AAF?$AAI?$AA?$AA@ 10024814     LIBCMT:winapinls.obj
 0002:00003820       ??_C@_1O@MGJBOAMB@?$AAq?$AAu?$AAz?$AA?9?$AAP?$AAE?$AA?$AA@ 10024820     LIBCMT:winapinls.obj
 0002:00003830       ??_C@_1M@GJINLBOK@?$AAa?$AAr?$AA?9?$AAL?$AAY?$AA?$AA@ 10024830     LIBCMT:winapinls.obj
 0002:0000383c       ??_C@_1M@GGMNHJNL@?$AAz?$AAh?$AA?9?$AAS?$AAG?$AA?$AA@ 1002483c     LIBCMT:winapinls.obj
 0002:00003848       ??_C@_1M@HOIKODND@?$AAd?$AAe?$AA?9?$AAL?$AAU?$AA?$AA@ 10024848     LIBCMT:winapinls.obj
 0002:00003854       ??_C@_1M@DDOCCGFG@?$AAe?$AAn?$AA?9?$AAC?$AAA?$AA?$AA@ 10024854     LIBCMT:winapinls.obj
 0002:00003860       ??_C@_1M@BNOEMJLF@?$AAe?$AAs?$AA?9?$AAG?$AAT?$AA?$AA@ 10024860     LIBCMT:winapinls.obj
 0002:0000386c       ??_C@_1M@EOGNKEK@?$AAf?$AAr?$AA?9?$AAC?$AAH?$AA?$AA@ 1002486c     LIBCMT:winapinls.obj
 0002:00003878       ??_C@_1M@FLIDJFHL@?$AAh?$AAr?$AA?9?$AAB?$AAA?$AA?$AA@ 10024878     LIBCMT:winapinls.obj
 0002:00003884       ??_C@_1O@FMCELNAJ@?$AAs?$AAm?$AAj?$AA?9?$AAN?$AAO?$AA?$AA@ 10024884     LIBCMT:winapinls.obj
 0002:00003894       ??_C@_1M@JHGLJMGJ@?$AAa?$AAr?$AA?9?$AAD?$AAZ?$AA?$AA@ 10024894     LIBCMT:winapinls.obj
 0002:000038a0       ??_C@_1M@JKKFDCNP@?$AAz?$AAh?$AA?9?$AAM?$AAO?$AA?$AA@ 100248a0     LIBCMT:winapinls.obj
 0002:000038ac       ??_C@_1M@GEEFALPE@?$AAd?$AAe?$AA?9?$AAL?$AAI?$AA?$AA@ 100248ac     LIBCMT:winapinls.obj
 0002:000038b8       ??_C@_1M@IGEOFBG@?$AAe?$AAn?$AA?9?$AAN?$AAZ?$AA?$AA@ 100248b8     LIBCMT:winapinls.obj
 0002:000038c4       ??_C@_1M@KDBONEHP@?$AAe?$AAs?$AA?9?$AAC?$AAR?$AA?$AA@ 100248c4     LIBCMT:winapinls.obj
 0002:000038d0       ??_C@_1M@FHMDOHNN@?$AAf?$AAr?$AA?9?$AAL?$AAU?$AA?$AA@ 100248d0     LIBCMT:winapinls.obj
 0002:000038dc       ??_C@_1BG@NFKKMAFG@?$AAb?$AAs?$AA?9?$AAB?$AAA?$AA?9?$AAL?$AAa?$AAt?$AAn?$AA?$AA@ 100248dc     LIBCMT:winapinls.obj
 0002:000038f4       ??_C@_1O@IMNBEMCI@?$AAs?$AAm?$AAj?$AA?9?$AAS?$AAE?$AA?$AA@ 100248f4     LIBCMT:winapinls.obj
 0002:00003904       ??_C@_1M@DHHMBNDP@?$AAa?$AAr?$AA?9?$AAM?$AAA?$AA?$AA@ 10024904     LIBCMT:winapinls.obj
 0002:00003910       ??_C@_1M@BNBLJCGH@?$AAe?$AAn?$AA?9?$AAI?$AAE?$AA?$AA@ 10024910     LIBCMT:winapinls.obj
 0002:0000391c       ??_C@_1M@GEPAFMDL@?$AAe?$AAs?$AA?9?$AAP?$AAA?$AA?$AA@ 1002491c     LIBCMT:winapinls.obj
 0002:00003928       ??_C@_1M@OJONDMDL@?$AAf?$AAr?$AA?9?$AAM?$AAC?$AA?$AA@ 10024928     LIBCMT:winapinls.obj
 0002:00003934       ??_C@_1BG@OBCNFJB@?$AAs?$AAr?$AA?9?$AAB?$AAA?$AA?9?$AAL?$AAa?$AAt?$AAn?$AA?$AA@ 10024934     LIBCMT:winapinls.obj
 0002:0000394c       ??_C@_1O@KEMEEGPO@?$AAs?$AAm?$AAa?$AA?9?$AAN?$AAO?$AA?$AA@ 1002494c     LIBCMT:winapinls.obj
 0002:0000395c       ??_C@_1M@ELMGFODK@?$AAa?$AAr?$AA?9?$AAT?$AAN?$AA?$AA@ 1002495c     LIBCMT:winapinls.obj
 0002:00003968       ??_C@_1M@BHDLHFAF@?$AAe?$AAn?$AA?9?$AAZ?$AAA?$AA?$AA@ 10024968     LIBCMT:winapinls.obj
 0002:00003974       ??_C@_1M@BMGIGLIF@?$AAe?$AAs?$AA?9?$AAD?$AAO?$AA?$AA@ 10024974     LIBCMT:winapinls.obj
 0002:00003980       ??_C@_1BG@CMBHIPBE@?$AAs?$AAr?$AA?9?$AAB?$AAA?$AA?9?$AAC?$AAy?$AAr?$AAl?$AA?$AA@ 10024980     LIBCMT:winapinls.obj
 0002:00003998       ??_C@_1O@HEDBLHNP@?$AAs?$AAm?$AAa?$AA?9?$AAS?$AAE?$AA?$AA@ 10024998     LIBCMT:winapinls.obj
 0002:000039a8       ??_C@_1M@DAGCADIM@?$AAa?$AAr?$AA?9?$AAO?$AAM?$AA?$AA@ 100249a8     LIBCMT:winapinls.obj
 0002:000039b4       ??_C@_1M@FODLMICG@?$AAe?$AAn?$AA?9?$AAJ?$AAM?$AA?$AA@ 100249b4     LIBCMT:winapinls.obj
 0002:000039c0       ??_C@_1M@DNMLCIHB@?$AAe?$AAs?$AA?9?$AAV?$AAE?$AA?$AA@ 100249c0     LIBCMT:winapinls.obj
 0002:000039cc       ??_C@_1O@EOKHMKJK@?$AAs?$AAm?$AAs?$AA?9?$AAF?$AAI?$AA?$AA@ 100249cc     LIBCMT:winapinls.obj
 0002:000039dc       ??_C@_1M@CAFJMKOF@?$AAa?$AAr?$AA?9?$AAY?$AAE?$AA?$AA@ 100249dc     LIBCMT:winapinls.obj
 0002:000039e8       ??_C@_1M@CBFHIJLI@?$AAe?$AAn?$AA?9?$AAC?$AAB?$AA?$AA@ 100249e8     LIBCMT:winapinls.obj
 0002:000039f4       ??_C@_1M@BGNFLDN@?$AAe?$AAs?$AA?9?$AAC?$AAO?$AA?$AA@ 100249f4     LIBCMT:winapinls.obj
 0002:00003a00       ??_C@_1O@JMPHMAMC@?$AAs?$AAm?$AAn?$AA?9?$AAF?$AAI?$AA?$AA@ 10024a00     LIBCMT:winapinls.obj
 0002:00003a10       ??_C@_1M@JLANABKE@?$AAa?$AAr?$AA?9?$AAS?$AAY?$AA?$AA@ 10024a10     LIBCMT:winapinls.obj
 0002:00003a1c       ??_C@_1M@HPKGCFGN@?$AAe?$AAn?$AA?9?$AAB?$AAZ?$AA?$AA@ 10024a1c     LIBCMT:winapinls.obj
 0002:00003a28       ??_C@_1M@OLJCMLGM@?$AAe?$AAs?$AA?9?$AAP?$AAE?$AA?$AA@ 10024a28     LIBCMT:winapinls.obj
 0002:00003a34       ??_C@_1M@MKKGFKLE@?$AAa?$AAr?$AA?9?$AAJ?$AAO?$AA?$AA@ 10024a34     LIBCMT:winapinls.obj
 0002:00003a40       ??_C@_1M@EKPGLDNI@?$AAe?$AAn?$AA?9?$AAT?$AAT?$AA?$AA@ 10024a40     LIBCMT:winapinls.obj
 0002:00003a4c       ??_C@_1M@OONGHFHE@?$AAe?$AAs?$AA?9?$AAA?$AAR?$AA?$AA@ 10024a4c     LIBCMT:winapinls.obj
 0002:00003a58       ??_C@_1M@OOJFGBHE@?$AAa?$AAr?$AA?9?$AAL?$AAB?$AA?$AA@ 10024a58     LIBCMT:winapinls.obj
 0002:00003a64       ??_C@_1M@GCEJHNEG@?$AAe?$AAn?$AA?9?$AAZ?$AAW?$AA?$AA@ 10024a64     LIBCMT:winapinls.obj
 0002:00003a70       ??_C@_1M@JNOCAHJI@?$AAe?$AAs?$AA?9?$AAE?$AAC?$AA?$AA@ 10024a70     LIBCMT:winapinls.obj
 0002:00003a7c       ??_C@_1M@JEFHPGGB@?$AAa?$AAr?$AA?9?$AAK?$AAW?$AA?$AA@ 10024a7c     LIBCMT:winapinls.obj
 0002:00003a88       ??_C@_1M@MLKIBJOJ@?$AAe?$AAn?$AA?9?$AAP?$AAH?$AA?$AA@ 10024a88     LIBCMT:winapinls.obj
 0002:00003a94       ??_C@_1M@BDNIPEND@?$AAe?$AAs?$AA?9?$AAC?$AAL?$AA?$AA@ 10024a94     LIBCMT:winapinls.obj
 0002:00003aa0       ??_C@_1M@MPNMEKBD@?$AAa?$AAr?$AA?9?$AAA?$AAE?$AA?$AA@ 10024aa0     LIBCMT:winapinls.obj
 0002:00003aac       ??_C@_1M@KBJALCPI@?$AAe?$AAs?$AA?9?$AAU?$AAY?$AA?$AA@ 10024aac     LIBCMT:winapinls.obj
 0002:00003ab8       ??_C@_1M@LLCCOAGA@?$AAa?$AAr?$AA?9?$AAB?$AAH?$AA?$AA@ 10024ab8     LIBCMT:winapinls.obj
 0002:00003ac4       ??_C@_1M@PBFNCDEL@?$AAe?$AAs?$AA?9?$AAP?$AAY?$AA?$AA@ 10024ac4     LIBCMT:winapinls.obj
 0002:00003ad0       ??_C@_1M@EDGINPNP@?$AAa?$AAr?$AA?9?$AAQ?$AAA?$AA?$AA@ 10024ad0     LIBCMT:winapinls.obj
 0002:00003adc       ??_C@_1M@MKDBIIJI@?$AAe?$AAs?$AA?9?$AAB?$AAO?$AA?$AA@ 10024adc     LIBCMT:winapinls.obj
 0002:00003ae8       ??_C@_1M@CPKKEBLD@?$AAe?$AAs?$AA?9?$AAS?$AAV?$AA?$AA@ 10024ae8     LIBCMT:winapinls.obj
 0002:00003af4       ??_C@_1M@NDBGMMJL@?$AAe?$AAs?$AA?9?$AAH?$AAN?$AA?$AA@ 10024af4     LIBCMT:winapinls.obj
 0002:00003b00       ??_C@_1M@JIJIBHDP@?$AAe?$AAs?$AA?9?$AAN?$AAI?$AA?$AA@ 10024b00     LIBCMT:winapinls.obj
 0002:00003b0c       ??_C@_1M@CGFMKEEK@?$AAe?$AAs?$AA?9?$AAP?$AAR?$AA?$AA@ 10024b0c     LIBCMT:winapinls.obj
 0002:00003b18       ??_C@_1O@ICJHKIIK@?$AAz?$AAh?$AA?9?$AAC?$AAH?$AAT?$AA?$AA@ 10024b18     LIBCMT:winapinls.obj
 0002:00003b28       ??_C@_15CLNEJCE@?$AAs?$AAr?$AA?$AA@ 10024b28     LIBCMT:winapinls.obj
 0002:00003b30       ??_C@_1M@KAHEKEIG@?$AAa?$AAf?$AA?9?$AAz?$AAa?$AA?$AA@ 10024b30     LIBCMT:winapinls.obj
 0002:00003b3c       ??_C@_1M@GIECOABL@?$AAa?$AAr?$AA?9?$AAa?$AAe?$AA?$AA@ 10024b3c     LIBCMT:winapinls.obj
 0002:00003b48       ??_C@_1M@BMLMEKGI@?$AAa?$AAr?$AA?9?$AAb?$AAh?$AA?$AA@ 10024b48     LIBCMT:winapinls.obj
 0002:00003b54       ??_C@_1M@DAPFDGGB@?$AAa?$AAr?$AA?9?$AAd?$AAz?$AA?$AA@ 10024b54     LIBCMT:winapinls.obj
 0002:00003b60       ??_C@_1M@FJNKGKIG@?$AAa?$AAr?$AA?9?$AAe?$AAg?$AA?$AA@ 10024b60     LIBCMT:winapinls.obj
 0002:00003b6c       ??_C@_1M@FLGKKCLO@?$AAa?$AAr?$AA?9?$AAi?$AAq?$AA?$AA@ 10024b6c     LIBCMT:winapinls.obj
 0002:00003b78       ??_C@_1M@GNDIPALM@?$AAa?$AAr?$AA?9?$AAj?$AAo?$AA?$AA@ 10024b78     LIBCMT:winapinls.obj
 0002:00003b84       ??_C@_1M@DDMJFMGJ@?$AAa?$AAr?$AA?9?$AAk?$AAw?$AA?$AA@ 10024b84     LIBCMT:winapinls.obj
 0002:00003b90       ??_C@_1M@EJALMLHM@?$AAa?$AAr?$AA?9?$AAl?$AAb?$AA?$AA@ 10024b90     LIBCMT:winapinls.obj
 0002:00003b9c       ??_C@_1M@MOBDBLOC@?$AAa?$AAr?$AA?9?$AAl?$AAy?$AA?$AA@ 10024b9c     LIBCMT:winapinls.obj
 0002:00003ba8       ??_C@_1M@JAOCLHDH@?$AAa?$AAr?$AA?9?$AAm?$AAa?$AA?$AA@ 10024ba8     LIBCMT:winapinls.obj
 0002:00003bb4       ??_C@_1M@JHPMKJIE@?$AAa?$AAr?$AA?9?$AAo?$AAm?$AA?$AA@ 10024bb4     LIBCMT:winapinls.obj
 0002:00003bc0       ??_C@_1M@OEPGHFNH@?$AAa?$AAr?$AA?9?$AAq?$AAa?$AA?$AA@ 10024bc0     LIBCMT:winapinls.obj
 0002:00003bcc       ??_C@_1M@KJDONENM@?$AAa?$AAr?$AA?9?$AAs?$AAa?$AA?$AA@ 10024bcc     LIBCMT:winapinls.obj
 0002:00003bd8       ??_C@_1M@DMJDKLKM@?$AAa?$AAr?$AA?9?$AAs?$AAy?$AA?$AA@ 10024bd8     LIBCMT:winapinls.obj
 0002:00003be4       ??_C@_1M@OMFIPEDC@?$AAa?$AAr?$AA?9?$AAt?$AAn?$AA?$AA@ 10024be4     LIBCMT:winapinls.obj
 0002:00003bf0       ??_C@_1M@IHMHGAON@?$AAa?$AAr?$AA?9?$AAy?$AAe?$AA?$AA@ 10024bf0     LIBCMT:winapinls.obj
 0002:00003bfc       ??_C@_1BG@KDCPGJGB@?$AAa?$AAz?$AA?9?$AAa?$AAz?$AA?9?$AAc?$AAy?$AAr?$AAl?$AA?$AA@ 10024bfc     LIBCMT:winapinls.obj
 0002:00003c14       ??_C@_1BG@IBCKDDOE@?$AAa?$AAz?$AA?9?$AAa?$AAz?$AA?9?$AAl?$AAa?$AAt?$AAn?$AA?$AA@ 10024c14     LIBCMT:winapinls.obj
 0002:00003c2c       ??_C@_1M@EGPFDCPD@?$AAb?$AAe?$AA?9?$AAb?$AAy?$AA?$AA@ 10024c2c     LIBCMT:winapinls.obj
 0002:00003c38       ??_C@_1M@PCMGMCGC@?$AAb?$AAg?$AA?9?$AAb?$AAg?$AA?$AA@ 10024c38     LIBCMT:winapinls.obj
 0002:00003c44       ??_C@_1M@BJBMFGOB@?$AAb?$AAn?$AA?9?$AAi?$AAn?$AA?$AA@ 10024c44     LIBCMT:winapinls.obj
 0002:00003c50       ??_C@_1BG@EAKMMACD@?$AAb?$AAs?$AA?9?$AAb?$AAa?$AA?9?$AAl?$AAa?$AAt?$AAn?$AA?$AA@ 10024c50     LIBCMT:winapinls.obj
 0002:00003c68       ??_C@_1M@KGADAODK@?$AAc?$AAa?$AA?9?$AAe?$AAs?$AA?$AA@ 10024c68     LIBCMT:winapinls.obj
 0002:00003c74       ??_C@_1M@COAJPDHI@?$AAc?$AAs?$AA?9?$AAc?$AAz?$AA?$AA@ 10024c74     LIBCMT:winapinls.obj
 0002:00003c80       ??_C@_1M@DHBHFONH@?$AAc?$AAy?$AA?9?$AAg?$AAb?$AA?$AA@ 10024c80     LIBCMT:winapinls.obj
 0002:00003c8c       ??_C@_1M@IMGKELGA@?$AAd?$AAa?$AA?9?$AAd?$AAk?$AA?$AA@ 10024c8c     LIBCMT:winapinls.obj
 0002:00003c98       ??_C@_1M@NNDGDNGA@?$AAd?$AAe?$AA?9?$AAa?$AAt?$AA?$AA@ 10024c98     LIBCMT:winapinls.obj
 0002:00003ca4       ??_C@_1M@IKDBHEEM@?$AAd?$AAe?$AA?9?$AAc?$AAh?$AA?$AA@ 10024ca4     LIBCMT:winapinls.obj
 0002:00003cb0       ??_C@_1M@GFFOJMCJ@?$AAd?$AAe?$AA?9?$AAd?$AAe?$AA?$AA@ 10024cb0     LIBCMT:winapinls.obj
 0002:00003cbc       ??_C@_1M@MDNLKBPM@?$AAd?$AAe?$AA?9?$AAl?$AAi?$AA?$AA@ 10024cbc     LIBCMT:winapinls.obj
 0002:00003cc8       ??_C@_1M@NJBEEJNL@?$AAd?$AAe?$AA?9?$AAl?$AAu?$AA?$AA@ 10024cc8     LIBCMT:winapinls.obj
 0002:00003cd4       ??_C@_1O@GNNELBAP@?$AAd?$AAi?$AAv?$AA?9?$AAm?$AAv?$AA?$AA@ 10024cd4     LIBCMT:winapinls.obj
 0002:00003ce4       ??_C@_1M@EJLEOGAE@?$AAe?$AAl?$AA?9?$AAg?$AAr?$AA?$AA@ 10024ce4     LIBCMT:winapinls.obj
 0002:00003cf0       ??_C@_1M@GMPONJN@?$AAe?$AAn?$AA?9?$AAa?$AAu?$AA?$AA@ 10024cf0     LIBCMT:winapinls.obj
 0002:00003cfc       ??_C@_1M@NIDIIPGF@?$AAe?$AAn?$AA?9?$AAb?$AAz?$AA?$AA@ 10024cfc     LIBCMT:winapinls.obj
 0002:00003d08       ??_C@_1M@JEHMIMFO@?$AAe?$AAn?$AA?9?$AAc?$AAa?$AA?$AA@ 10024d08     LIBCMT:winapinls.obj
 0002:00003d14       ??_C@_1M@IGMJCDLA@?$AAe?$AAn?$AA?9?$AAc?$AAb?$AA?$AA@ 10024d14     LIBCMT:winapinls.obj
 0002:00003d20       ??_C@_1M@BNFIGBKG@?$AAe?$AAn?$AA?9?$AAg?$AAb?$AA?$AA@ 10024d20     LIBCMT:winapinls.obj
 0002:00003d2c       ??_C@_1M@LKIFDIGP@?$AAe?$AAn?$AA?9?$AAi?$AAe?$AA?$AA@ 10024d2c     LIBCMT:winapinls.obj
 0002:00003d38       ??_C@_1M@PJKFGCCO@?$AAe?$AAn?$AA?9?$AAj?$AAm?$AA?$AA@ 10024d38     LIBCMT:winapinls.obj
 0002:00003d44       ??_C@_1M@KPPKEPBO@?$AAe?$AAn?$AA?9?$AAn?$AAz?$AA?$AA@ 10024d44     LIBCMT:winapinls.obj
 0002:00003d50       ??_C@_1M@GMDGLDOB@?$AAe?$AAn?$AA?9?$AAp?$AAh?$AA?$AA@ 10024d50     LIBCMT:winapinls.obj
 0002:00003d5c       ??_C@_1M@ONGIBJNA@?$AAe?$AAn?$AA?9?$AAt?$AAt?$AA?$AA@ 10024d5c     LIBCMT:winapinls.obj
 0002:00003d68       ??_C@_1M@LLODPCMM@?$AAe?$AAn?$AA?9?$AAu?$AAs?$AA?$AA@ 10024d68     LIBCMT:winapinls.obj
 0002:00003d74       ??_C@_1M@LAKFNPAN@?$AAe?$AAn?$AA?9?$AAz?$AAa?$AA?$AA@ 10024d74     LIBCMT:winapinls.obj
 0002:00003d80       ??_C@_1M@MFNHNHEO@?$AAe?$AAn?$AA?9?$AAz?$AAw?$AA?$AA@ 10024d80     LIBCMT:winapinls.obj
 0002:00003d8c       ??_C@_1M@EJEINPHM@?$AAe?$AAs?$AA?9?$AAa?$AAr?$AA?$AA@ 10024d8c     LIBCMT:winapinls.obj
 0002:00003d98       ??_C@_1M@GNKPCCJA@?$AAe?$AAs?$AA?9?$AAb?$AAo?$AA?$AA@ 10024d98     LIBCMT:winapinls.obj
 0002:00003da4       ??_C@_1M@LEEGFONL@?$AAe?$AAs?$AA?9?$AAc?$AAl?$AA?$AA@ 10024da4     LIBCMT:winapinls.obj
 0002:00003db0       ??_C@_1M@KGPDPBDF@?$AAe?$AAs?$AA?9?$AAc?$AAo?$AA?$AA@ 10024db0     LIBCMT:winapinls.obj
 0002:00003dbc       ??_C@_1M@EIAHOHH@?$AAe?$AAs?$AA?9?$AAc?$AAr?$AA?$AA@ 10024dbc     LIBCMT:winapinls.obj
 0002:00003dc8       ??_C@_1M@LLPGMBIN@?$AAe?$AAs?$AA?9?$AAd?$AAo?$AA?$AA@ 10024dc8     LIBCMT:winapinls.obj
 0002:00003dd4       ??_C@_1M@DKHMKNJA@?$AAe?$AAs?$AA?9?$AAe?$AAc?$AA?$AA@ 10024dd4     LIBCMT:winapinls.obj
 0002:00003de0       ??_C@_1M@GKGFPKAP@?$AAe?$AAs?$AA?9?$AAe?$AAs?$AA?$AA@ 10024de0     LIBCMT:winapinls.obj
 0002:00003dec       ??_C@_1M@LKHKGDLN@?$AAe?$AAs?$AA?9?$AAg?$AAt?$AA?$AA@ 10024dec     LIBCMT:winapinls.obj
 0002:00003df8       ??_C@_1M@HEIIGGJD@?$AAe?$AAs?$AA?9?$AAh?$AAn?$AA?$AA@ 10024df8     LIBCMT:winapinls.obj
 0002:00003e04       ??_C@_1M@FBDHPPGD@?$AAe?$AAs?$AA?9?$AAm?$AAx?$AA?$AA@ 10024e04     LIBCMT:winapinls.obj
 0002:00003e10       ??_C@_1M@DPAGLNDH@?$AAe?$AAs?$AA?9?$AAn?$AAi?$AA?$AA@ 10024e10     LIBCMT:winapinls.obj
 0002:00003e1c       ??_C@_1M@MDGOPGDD@?$AAe?$AAs?$AA?9?$AAp?$AAa?$AA?$AA@ 10024e1c     LIBCMT:winapinls.obj
 0002:00003e28       ??_C@_1M@EMAMGBGE@?$AAe?$AAs?$AA?9?$AAp?$AAe?$AA?$AA@ 10024e28     LIBCMT:winapinls.obj
 0002:00003e34       ??_C@_1M@IBMCAOEC@?$AAe?$AAs?$AA?9?$AAp?$AAr?$AA?$AA@ 10024e34     LIBCMT:winapinls.obj
 0002:00003e40       ??_C@_1M@FGMDIJED@?$AAe?$AAs?$AA?9?$AAp?$AAy?$AA?$AA@ 10024e40     LIBCMT:winapinls.obj
 0002:00003e4c       ??_C@_1M@IIDEOLLL@?$AAe?$AAs?$AA?9?$AAs?$AAv?$AA?$AA@ 10024e4c     LIBCMT:winapinls.obj
 0002:00003e58       ??_C@_1M@GAOBIPA@?$AAe?$AAs?$AA?9?$AAu?$AAy?$AA?$AA@ 10024e58     LIBCMT:winapinls.obj
 0002:00003e64       ??_C@_1M@JKFFICHJ@?$AAe?$AAs?$AA?9?$AAv?$AAe?$AA?$AA@ 10024e64     LIBCMT:winapinls.obj
 0002:00003e70       ??_C@_1M@PNMLOJDF@?$AAe?$AAt?$AA?9?$AAe?$AAe?$AA?$AA@ 10024e70     LIBCMT:winapinls.obj
 0002:00003e7c       ??_C@_1M@GHHLIKEI@?$AAe?$AAu?$AA?9?$AAe?$AAs?$AA?$AA@ 10024e7c     LIBCMT:winapinls.obj
 0002:00003e88       ??_C@_1M@PBNONODE@?$AAf?$AAa?$AA?9?$AAi?$AAr?$AA?$AA@ 10024e88     LIBCMT:winapinls.obj
 0002:00003e94       ??_C@_1M@JEEHPMIL@?$AAf?$AAi?$AA?9?$AAf?$AAi?$AA?$AA@ 10024e94     LIBCMT:winapinls.obj
 0002:00003ea0       ??_C@_1M@LMDCNDBA@?$AAf?$AAo?$AA?9?$AAf?$AAo?$AA?$AA@ 10024ea0     LIBCMT:winapinls.obj
 0002:00003eac       ??_C@_1M@JKEOHLDK@?$AAf?$AAr?$AA?9?$AAb?$AAe?$AA?$AA@ 10024eac     LIBCMT:winapinls.obj
 0002:00003eb8       ??_C@_1M@NOHADPMI@?$AAf?$AAr?$AA?9?$AAc?$AAa?$AA?$AA@ 10024eb8     LIBCMT:winapinls.obj
 0002:00003ec4       ??_C@_1M@KDHIHAEC@?$AAf?$AAr?$AA?9?$AAc?$AAh?$AA?$AA@ 10024ec4     LIBCMT:winapinls.obj
 0002:00003ed0       ??_C@_1M@MMBBFGAK@?$AAf?$AAr?$AA?9?$AAf?$AAr?$AA?$AA@ 10024ed0     LIBCMT:winapinls.obj
 0002:00003edc       ??_C@_1M@PAFNENNF@?$AAf?$AAr?$AA?9?$AAl?$AAu?$AA?$AA@ 10024edc     LIBCMT:winapinls.obj
 0002:00003ee8       ??_C@_1M@EOHDJGDD@?$AAf?$AAr?$AA?9?$AAm?$AAc?$AA?$AA@ 10024ee8     LIBCMT:winapinls.obj
 0002:00003ef4       ??_C@_1M@FAPLLOPF@?$AAg?$AAl?$AA?9?$AAe?$AAs?$AA?$AA@ 10024ef4     LIBCMT:winapinls.obj
 0002:00003f00       ??_C@_1M@FOPBFLOO@?$AAg?$AAu?$AA?9?$AAi?$AAn?$AA?$AA@ 10024f00     LIBCMT:winapinls.obj
 0002:00003f0c       ??_C@_1M@KBMCINPM@?$AAh?$AAe?$AA?9?$AAi?$AAl?$AA?$AA@ 10024f0c     LIBCMT:winapinls.obj
 0002:00003f18       ??_C@_1M@BBPHKFPJ@?$AAh?$AAi?$AA?9?$AAi?$AAn?$AA?$AA@ 10024f18     LIBCMT:winapinls.obj
 0002:00003f24       ??_C@_1M@PMBNDPHD@?$AAh?$AAr?$AA?9?$AAb?$AAa?$AA?$AA@ 10024f24     LIBCMT:winapinls.obj
 0002:00003f30       ??_C@_1M@BPCKOEGE@?$AAh?$AAr?$AA?9?$AAh?$AAr?$AA?$AA@ 10024f30     LIBCMT:winapinls.obj
 0002:00003f3c       ??_C@_1M@GACBMHKE@?$AAh?$AAu?$AA?9?$AAh?$AAu?$AA?$AA@ 10024f3c     LIBCMT:winapinls.obj
 0002:00003f48       ??_C@_1M@MILPAJJC@?$AAh?$AAy?$AA?9?$AAa?$AAm?$AA?$AA@ 10024f48     LIBCMT:winapinls.obj
 0002:00003f54       ??_C@_1M@BABBICEC@?$AAi?$AAd?$AA?9?$AAi?$AAd?$AA?$AA@ 10024f54     LIBCMT:winapinls.obj
 0002:00003f60       ??_C@_1M@BIKNHHPF@?$AAi?$AAs?$AA?9?$AAi?$AAs?$AA?$AA@ 10024f60     LIBCMT:winapinls.obj
 0002:00003f6c       ??_C@_1M@NMPCJPHE@?$AAi?$AAt?$AA?9?$AAc?$AAh?$AA?$AA@ 10024f6c     LIBCMT:winapinls.obj
 0002:00003f78       ??_C@_1M@GHKGFEDF@?$AAi?$AAt?$AA?9?$AAi?$AAt?$AA?$AA@ 10024f78     LIBCMT:winapinls.obj
 0002:00003f84       ??_C@_1M@NIEJCJJA@?$AAj?$AAa?$AA?9?$AAj?$AAp?$AA?$AA@ 10024f84     LIBCMT:winapinls.obj
 0002:00003f90       ??_C@_1M@JILFNBIM@?$AAk?$AAa?$AA?9?$AAg?$AAe?$AA?$AA@ 10024f90     LIBCMT:winapinls.obj
 0002:00003f9c       ??_C@_1M@PACPMGPH@?$AAk?$AAk?$AA?9?$AAk?$AAz?$AA?$AA@ 10024f9c     LIBCMT:winapinls.obj
 0002:00003fa8       ??_C@_1M@IELFGMHA@?$AAk?$AAn?$AA?9?$AAi?$AAn?$AA?$AA@ 10024fa8     LIBCMT:winapinls.obj
 0002:00003fb4       ??_C@_1O@IBBJHCH@?$AAk?$AAo?$AAk?$AA?9?$AAi?$AAn?$AA?$AA@ 10024fb4     LIBCMT:winapinls.obj
 0002:00003fc4       ??_C@_1M@DMHAEOGC@?$AAk?$AAo?$AA?9?$AAk?$AAr?$AA?$AA@ 10024fc4     LIBCMT:winapinls.obj
 0002:00003fd0       ??_C@_1M@HBAHBIGA@?$AAk?$AAy?$AA?9?$AAk?$AAg?$AA?$AA@ 10024fd0     LIBCMT:winapinls.obj
 0002:00003fdc       ??_C@_1M@KPMILCJG@?$AAl?$AAt?$AA?9?$AAl?$AAt?$AA?$AA@ 10024fdc     LIBCMT:winapinls.obj
 0002:00003fe8       ??_C@_1M@BDEKKCA@?$AAl?$AAv?$AA?9?$AAl?$AAv?$AA?$AA@ 10024fe8     LIBCMT:winapinls.obj
 0002:00003ff4       ??_C@_1M@ELCKCCJJ@?$AAm?$AAi?$AA?9?$AAn?$AAz?$AA?$AA@ 10024ff4     LIBCMT:winapinls.obj
 0002:00004000       ??_C@_1M@CBOOLAPA@?$AAm?$AAk?$AA?9?$AAm?$AAk?$AA?$AA@ 10025000     LIBCMT:winapinls.obj
 0002:0000400c       ??_C@_1M@GPHNBJKN@?$AAm?$AAl?$AA?9?$AAi?$AAn?$AA?$AA@ 1002500c     LIBCMT:winapinls.obj
 0002:00004018       ??_C@_1M@PABJILIG@?$AAm?$AAn?$AA?9?$AAm?$AAn?$AA?$AA@ 10025018     LIBCMT:winapinls.obj
 0002:00004024       ??_C@_1M@FGBKKIPG@?$AAm?$AAr?$AA?9?$AAi?$AAn?$AA?$AA@ 10025024     LIBCMT:winapinls.obj
 0002:00004030       ??_C@_1M@NDBPDDAL@?$AAm?$AAs?$AA?9?$AAb?$AAn?$AA?$AA@ 10025030     LIBCMT:winapinls.obj
 0002:0000403c       ??_C@_1M@OPIHOOPI@?$AAm?$AAs?$AA?9?$AAm?$AAy?$AA?$AA@ 1002503c     LIBCMT:winapinls.obj
 0002:00004048       ??_C@_1M@PPDBCNFM@?$AAm?$AAt?$AA?9?$AAm?$AAt?$AA?$AA@ 10025048     LIBCMT:winapinls.obj
 0002:00004054       ??_C@_1M@KDJDKMDD@?$AAn?$AAb?$AA?9?$AAn?$AAo?$AA?$AA@ 10025054     LIBCMT:winapinls.obj
 0002:00004060       ??_C@_1M@KFCFLMJP@?$AAn?$AAl?$AA?9?$AAb?$AAe?$AA?$AA@ 10025060     LIBCMT:winapinls.obj
 0002:0000406c       ??_C@_1M@KPOPDDGO@?$AAn?$AAl?$AA?9?$AAn?$AAl?$AA?$AA@ 1002506c     LIBCMT:winapinls.obj
 0002:00004078       ??_C@_1M@LJKPEMLN@?$AAn?$AAn?$AA?9?$AAn?$AAo?$AA?$AA@ 10025078     LIBCMT:winapinls.obj
 0002:00004084       ??_C@_1M@BDGHHBFL@?$AAn?$AAs?$AA?9?$AAz?$AAa?$AA?$AA@ 10025084     LIBCMT:winapinls.obj
 0002:00004090       ??_C@_1M@IDEHOAP@?$AAp?$AAa?$AA?9?$AAi?$AAn?$AA?$AA@ 10025090     LIBCMT:winapinls.obj
 0002:0000409c       ??_C@_1M@HDBKGOGH@?$AAp?$AAl?$AA?9?$AAp?$AAl?$AA?$AA@ 1002509c     LIBCMT:winapinls.obj
 0002:000040a8       ??_C@_1M@LJLLCMEH@?$AAp?$AAt?$AA?9?$AAb?$AAr?$AA?$AA@ 100250a8     LIBCMT:winapinls.obj
 0002:000040b4       ??_C@_1M@NCMONAAL@?$AAp?$AAt?$AA?9?$AAp?$AAt?$AA?$AA@ 100250b4     LIBCMT:winapinls.obj
 0002:000040c0       ??_C@_1O@EAKMAJDN@?$AAq?$AAu?$AAz?$AA?9?$AAb?$AAo?$AA?$AA@ 100250c0     LIBCMT:winapinls.obj
 0002:000040d0       ??_C@_1O@BHHPIGDN@?$AAq?$AAu?$AAz?$AA?9?$AAe?$AAc?$AA?$AA@ 100250d0     LIBCMT:winapinls.obj
 0002:000040e0       ??_C@_1O@GBAPEKMJ@?$AAq?$AAu?$AAz?$AA?9?$AAp?$AAe?$AA?$AA@ 100250e0     LIBCMT:winapinls.obj
 0002:000040f0       ??_C@_1M@CLGLEFBO@?$AAr?$AAo?$AA?9?$AAr?$AAo?$AA?$AA@ 100250f0     LIBCMT:winapinls.obj
 0002:000040fc       ??_C@_1M@CEEDODME@?$AAr?$AAu?$AA?9?$AAr?$AAu?$AA?$AA@ 100250fc     LIBCMT:winapinls.obj
 0002:00004108       ??_C@_1M@HPKKKMPP@?$AAs?$AAa?$AA?9?$AAi?$AAn?$AA?$AA@ 10025108     LIBCMT:winapinls.obj
 0002:00004114       ??_C@_1M@BKMAIGOJ@?$AAs?$AAe?$AA?9?$AAf?$AAi?$AA?$AA@ 10025114     LIBCMT:winapinls.obj
 0002:00004120       ??_C@_1M@NDPIFLFI@?$AAs?$AAe?$AA?9?$AAn?$AAo?$AA?$AA@ 10025120     LIBCMT:winapinls.obj
 0002:0000412c       ??_C@_1M@DANKKHJ@?$AAs?$AAe?$AA?9?$AAs?$AAe?$AA?$AA@ 1002512c     LIBCMT:winapinls.obj
 0002:00004138       ??_C@_1M@PNBLONPJ@?$AAs?$AAk?$AA?9?$AAs?$AAk?$AA?$AA@ 10025138     LIBCMT:winapinls.obj
 0002:00004144       ??_C@_1M@LFMODOAL@?$AAs?$AAl?$AA?9?$AAs?$AAi?$AA?$AA@ 10025144     LIBCMT:winapinls.obj
 0002:00004150       ??_C@_1O@DFKOMPG@?$AAs?$AAm?$AAa?$AA?9?$AAn?$AAo?$AA?$AA@ 10025150     LIBCMT:winapinls.obj
 0002:00004160       ??_C@_1O@NDKPBNNH@?$AAs?$AAm?$AAa?$AA?9?$AAs?$AAe?$AA?$AA@ 10025160     LIBCMT:winapinls.obj
 0002:00004170       ??_C@_1O@PLLKBHAB@?$AAs?$AAm?$AAj?$AA?9?$AAn?$AAo?$AA?$AA@ 10025170     LIBCMT:winapinls.obj
 0002:00004180       ??_C@_1O@CLEPOGCA@?$AAs?$AAm?$AAj?$AA?9?$AAs?$AAe?$AA?$AA@ 10025180     LIBCMT:winapinls.obj
 0002:00004190       ??_C@_1O@DLGJGKMK@?$AAs?$AAm?$AAn?$AA?9?$AAf?$AAi?$AA?$AA@ 10025190     LIBCMT:winapinls.obj
 0002:000041a0       ??_C@_1O@OJDJGAJC@?$AAs?$AAm?$AAs?$AA?9?$AAf?$AAi?$AA?$AA@ 100251a0     LIBCMT:winapinls.obj
 0002:000041b0       ??_C@_1M@BOFOGHPB@?$AAs?$AAq?$AA?9?$AAa?$AAl?$AA?$AA@ 100251b0     LIBCMT:winapinls.obj
 0002:000041bc       ??_C@_1BG@LJBBIPGB@?$AAs?$AAr?$AA?9?$AAb?$AAa?$AA?9?$AAc?$AAy?$AAr?$AAl?$AA?$AA@ 100251bc     LIBCMT:winapinls.obj
 0002:000041d4       ??_C@_1BG@JLBENFOE@?$AAs?$AAr?$AA?9?$AAb?$AAa?$AA?9?$AAl?$AAa?$AAt?$AAn?$AA?$AA@ 100251d4     LIBCMT:winapinls.obj
 0002:000041ec       ??_C@_1BG@KODPNHE@?$AAs?$AAr?$AA?9?$AAs?$AAp?$AA?9?$AAc?$AAy?$AAr?$AAl?$AA?$AA@ 100251ec     LIBCMT:winapinls.obj
 0002:00004204       ??_C@_1BG@CIOGKHPB@?$AAs?$AAr?$AA?9?$AAs?$AAp?$AA?9?$AAl?$AAa?$AAt?$AAn?$AA?$AA@ 10025204     LIBCMT:winapinls.obj
 0002:0000421c       ??_C@_1M@NGFJLMAC@?$AAs?$AAv?$AA?9?$AAf?$AAi?$AA?$AA@ 1002521c     LIBCMT:winapinls.obj
 0002:00004228       ??_C@_1M@MPJEJAJC@?$AAs?$AAv?$AA?9?$AAs?$AAe?$AA?$AA@ 10025228     LIBCMT:winapinls.obj
 0002:00004234       ??_C@_1M@MPNDHLFK@?$AAs?$AAw?$AA?9?$AAk?$AAe?$AA?$AA@ 10025234     LIBCMT:winapinls.obj
 0002:00004240       ??_C@_1O@KOHBJJI@?$AAs?$AAy?$AAr?$AA?9?$AAs?$AAy?$AA?$AA@ 10025240     LIBCMT:winapinls.obj
 0002:00004250       ??_C@_1M@LDCEFHA@?$AAt?$AAa?$AA?9?$AAi?$AAn?$AA?$AA@ 10025250     LIBCMT:winapinls.obj
 0002:0000425c       ??_C@_1M@CNJOFAK@?$AAt?$AAe?$AA?9?$AAi?$AAn?$AA?$AA@ 1002525c     LIBCMT:winapinls.obj
 0002:00004268       ??_C@_1M@GNAECACD@?$AAt?$AAh?$AA?9?$AAt?$AAh?$AA?$AA@ 10025268     LIBCMT:winapinls.obj
 0002:00004274       ??_C@_1M@CHBIHOJO@?$AAt?$AAn?$AA?9?$AAz?$AAa?$AA?$AA@ 10025274     LIBCMT:winapinls.obj
 0002:00004280       ??_C@_1M@GCCMIGPJ@?$AAt?$AAr?$AA?9?$AAt?$AAr?$AA?$AA@ 10025280     LIBCMT:winapinls.obj
 0002:0000428c       ??_C@_1M@CELMCNBK@?$AAt?$AAt?$AA?9?$AAr?$AAu?$AA?$AA@ 1002528c     LIBCMT:winapinls.obj
 0002:00004298       ??_C@_1M@KLMCELGA@?$AAu?$AAk?$AA?9?$AAu?$AAa?$AA?$AA@ 10025298     LIBCMT:winapinls.obj
 0002:000042a4       ??_C@_1M@EPAJJAJF@?$AAu?$AAr?$AA?9?$AAp?$AAk?$AA?$AA@ 100252a4     LIBCMT:winapinls.obj
 0002:000042b0       ??_C@_1BG@GEGPMCDJ@?$AAu?$AAz?$AA?9?$AAu?$AAz?$AA?9?$AAc?$AAy?$AAr?$AAl?$AA?$AA@ 100252b0     LIBCMT:winapinls.obj
 0002:000042c8       ??_C@_1BG@EGGKJILM@?$AAu?$AAz?$AA?9?$AAu?$AAz?$AA?9?$AAl?$AAa?$AAt?$AAn?$AA?$AA@ 100252c8     LIBCMT:winapinls.obj
 0002:000042e0       ??_C@_1M@GFOCLFF@?$AAv?$AAi?$AA?9?$AAv?$AAn?$AA?$AA@ 100252e0     LIBCMT:winapinls.obj
 0002:000042ec       ??_C@_1M@CPAMEDFI@?$AAx?$AAh?$AA?9?$AAz?$AAa?$AA?$AA@ 100252ec     LIBCMT:winapinls.obj
 0002:000042f8       ??_C@_1O@EBKIFIGN@?$AAz?$AAh?$AA?9?$AAc?$AAh?$AAs?$AA?$AA@ 100252f8     LIBCMT:winapinls.obj
 0002:00004308       ??_C@_1O@NMHPGANE@?$AAz?$AAh?$AA?9?$AAc?$AAh?$AAt?$AA?$AA@ 10025308     LIBCMT:winapinls.obj
 0002:00004318       ??_C@_1M@LPINJOMC@?$AAz?$AAh?$AA?9?$AAc?$AAn?$AA?$AA@ 10025318     LIBCMT:winapinls.obj
 0002:00004324       ??_C@_1M@OCJEJODD@?$AAz?$AAh?$AA?9?$AAh?$AAk?$AA?$AA@ 10025324     LIBCMT:winapinls.obj
 0002:00004330       ??_C@_1M@DNDLJINH@?$AAz?$AAh?$AA?9?$AAm?$AAo?$AA?$AA@ 10025330     LIBCMT:winapinls.obj
 0002:0000433c       ??_C@_1M@MBFDNDND@?$AAz?$AAh?$AA?9?$AAs?$AAg?$AA?$AA@ 1002533c     LIBCMT:winapinls.obj
 0002:00004348       ??_C@_1M@IMEPLEPE@?$AAz?$AAh?$AA?9?$AAt?$AAw?$AA?$AA@ 10025348     LIBCMT:winapinls.obj
 0002:00004354       ??_C@_1M@BBGHNHJP@?$AAz?$AAu?$AA?9?$AAz?$AAa?$AA?$AA@ 10025354     LIBCMT:winapinls.obj
 0002:00004360       __indefinite               10025360     LIBCMT:87disp.obj
 0002:0000436a       __piby2                    1002536a     LIBCMT:87disp.obj
 0002:00004398       __DEFAULT_CW_in_mem        10025398     LIBCMT:common.obj
 0002:0000439a       __pi_by_2_to_61            1002539a     LIBCMT:common.obj
 0002:000043d8       ___newctype                100253d8     LIBCMT:ctype.obj
 0002:000046d8       __wctype                   100256d8     LIBCMT:ctype.obj
 0002:000048e0       ___newclmap                100258e0     LIBCMT:ctype.obj
 0002:00004a60       ___newcumap                10025a60     LIBCMT:ctype.obj
 0002:00004be0       ___rg_language_count       10025be0     LIBCMT:getqloc.obj
 0002:00004be4       ___rg_country_count        10025be4     LIBCMT:getqloc.obj
 0002:00004d74       ??_C@_08EHJDFFNH@__based?$CI?$AA@ 10025d74     LIBCMT:undname.obj
 0002:00004d80       ??_C@_07KOLFKCDI@__cdecl?$AA@ 10025d80     LIBCMT:undname.obj
 0002:00004d88       ??_C@_08GHMPAG@__pascal?$AA@ 10025d88     LIBCMT:undname.obj
 0002:00004d94       ??_C@_09IFJBGAPI@__stdcall?$AA@ 10025d94     LIBCMT:undname.obj
 0002:00004da0       ??_C@_0L@NPHFGOKO@__thiscall?$AA@ 10025da0     LIBCMT:undname.obj
 0002:00004dac       ??_C@_0L@JMKHOMEK@__fastcall?$AA@ 10025dac     LIBCMT:undname.obj
 0002:00004db8       ??_C@_0N@BCKKPABJ@__vectorcall?$AA@ 10025db8     LIBCMT:undname.obj
 0002:00004dc8       ??_C@_09HIJEGCPM@__clrcall?$AA@ 10025dc8     LIBCMT:undname.obj
 0002:00004dd4       ??_C@_06GHPCKEAG@__eabi?$AA@ 10025dd4     LIBCMT:undname.obj
 0002:00004ddc       ??_C@_07JOMMBBKO@__ptr64?$AA@ 10025ddc     LIBCMT:undname.obj
 0002:00004de4       ??_C@_0L@PILCLIHE@__restrict?$AA@ 10025de4     LIBCMT:undname.obj
 0002:00004df0       ??_C@_0M@GFIIJFMG@__unaligned?$AA@ 10025df0     LIBCMT:undname.obj
 0002:00004dfc       ??_C@_09DHDLOLLB@restrict?$CI?$AA@ 10025dfc     LIBCMT:undname.obj
 0002:00004e08       ??_C@_04NIHEBCM@?5new?$AA@ 10025e08     LIBCMT:undname.obj
 0002:00004e10       ??_C@_07FPCDHGMM@?5delete?$AA@ 10025e10     LIBCMT:undname.obj
 0002:00004e18       ??_C@_01NEMOKFLO@?$DN?$AA@ 10025e18     LIBCMT:undname.obj
 0002:00004e1c       ??_C@_02GPIOPFAK@?$DO?$DO?$AA@ 10025e1c     LIBCMT:undname.obj
 0002:00004e20       ??_C@_02FODMEDOG@?$DM?$DM?$AA@ 10025e20     LIBCMT:undname.obj
 0002:00004e24       ??_C@_01DCLJPIOD@?$CB?$AA@ 10025e24     LIBCMT:undname.obj
 0002:00004e28       ??_C@_02EGOFBIJA@?$DN?$DN?$AA@ 10025e28     LIBCMT:undname.obj
 0002:00004e2c       ??_C@_02FDNJECIE@?$CB?$DN?$AA@ 10025e2c     LIBCMT:undname.obj
 0002:00004e30       ??_C@_02GPECMEKF@?$FL?$FN?$AA@ 10025e30     LIBCMT:undname.obj
 0002:00004e34       ??_C@_08LHJFAFGD@operator?$AA@ 10025e34     LIBCMT:undname.obj
 0002:00004e40       ??_C@_02HBOOOICD@?9?$DO?$AA@ 10025e40     LIBCMT:undname.obj
 0002:00004e44       ??_C@_01NBENCBCI@?$CK?$AA@ 10025e44     LIBCMT:undname.obj
 0002:00004e48       ??_C@_02ECNGHCIF@?$CL?$CL?$AA@ 10025e48     LIBCMT:undname.obj
 0002:00004e4c       ??_C@_02BAABKJLB@?9?9?$AA@ 10025e4c     LIBCMT:undname.obj
 0002:00004e50       ??_C@_01JOAMLHOP@?9?$AA@   10025e50     LIBCMT:undname.obj
 0002:00004e54       ??_C@_01MIFGBAGJ@?$CL?$AA@ 10025e54     LIBCMT:undname.obj
 0002:00004e58       ??_C@_01HNPIGOCE@?$CG?$AA@ 10025e58     LIBCMT:undname.obj
 0002:00004e5c       ??_C@_03MNHNFDLC@?9?$DO?$CK?$AA@ 10025e5c     LIBCMT:undname.obj
 0002:00004e60       ??_C@_01KMDKNFGN@?1?$AA@   10025e60     LIBCMT:undname.obj
 0002:00004e64       ??_C@_01FGNFDNOH@?$CF?$AA@ 10025e64     LIBCMT:undname.obj
 0002:00004e68       ??_C@_01MNNFJEPP@?$DM?$AA@ 10025e68     LIBCMT:undname.obj
 0002:00004e6c       ??_C@_02EHCHHCKH@?$DM?$DN?$AA@ 10025e6c     LIBCMT:undname.obj
 0002:00004e70       ??_C@_01PPODPGHN@?$DO?$AA@ 10025e70     LIBCMT:undname.obj
 0002:00004e74       ??_C@_02EEKDKGMJ@?$DO?$DN?$AA@ 10025e74     LIBCMT:undname.obj
 0002:00004e78       ??_C@_01IHBHIGKO@?0?$AA@   10025e78     LIBCMT:undname.obj
 0002:00004e7c       ??_C@_02HCKGKOFO@?$CI?$CJ?$AA@ 10025e7c     LIBCMT:undname.obj
 0002:00004e80       ??_C@_01PJKLJHI@?$HO?$AA@  10025e80     LIBCMT:undname.obj
 0002:00004e84       ??_C@_01JKBOJNNK@?$FO?$AA@ 10025e84     LIBCMT:undname.obj
 0002:00004e88       ??_C@_01DNKMNLPK@?$HM?$AA@ 10025e88     LIBCMT:undname.obj
 0002:00004e8c       ??_C@_02PPKAJPJL@?$CG?$CG?$AA@ 10025e8c     LIBCMT:undname.obj
 0002:00004e90       ??_C@_02NONPIBCD@?$HM?$HM?$AA@ 10025e90     LIBCMT:undname.obj
 0002:00004e94       ??_C@_02FPIMKNGF@?$CK?$DN?$AA@ 10025e94     LIBCMT:undname.obj
 0002:00004e98       ??_C@_02FOEOMHFC@?$CL?$DN?$AA@ 10025e98     LIBCMT:undname.obj
 0002:00004e9c       ??_C@_02FKMDLLOA@?9?$DN?$AA@ 10025e9c     LIBCMT:undname.obj
 0002:00004ea0       ??_C@_02FJEHGPIO@?1?$DN?$AA@ 10025ea0     LIBCMT:undname.obj
 0002:00004ea4       ??_C@_02FENAOKFI@?$CF?$DN?$AA@ 10025ea4     LIBCMT:undname.obj
 0002:00004ea8       ??_C@_03IKFCCPFF@?$DO?$DO?$DN?$AA@ 10025ea8     LIBCMT:undname.obj
 0002:00004eac       ??_C@_03CDNPDDLA@?$DM?$DM?$DN?$AA@ 10025eac     LIBCMT:undname.obj
 0002:00004eb0       ??_C@_02FGJGFEAB@?$CG?$DN?$AA@ 10025eb0     LIBCMT:undname.obj
 0002:00004eb4       ??_C@_02DHLNPPGH@?$HM?$DN?$AA@ 10025eb4     LIBCMT:undname.obj
 0002:00004eb8       ??_C@_02MHEGNOJ@?$FO?$DN?$AA@ 10025eb8     LIBCMT:undname.obj
 0002:00004ebc       ??_C@_09IFPLHPGF@?$GAvftable?8?$AA@ 10025ebc     LIBCMT:undname.obj
 0002:00004ec8       ??_C@_09BLBHBJP@?$GAvbtable?8?$AA@ 10025ec8     LIBCMT:undname.obj
 0002:00004ed4       ??_C@_07FEEIOKP@?$GAvcall?8?$AA@ 10025ed4     LIBCMT:undname.obj
 0002:00004edc       ??_C@_08LLFFHHDJ@?$GAtypeof?8?$AA@ 10025edc     LIBCMT:undname.obj
 0002:00004ee8       ??_C@_0BF@KDPPACIK@?$GAlocal?5static?5guard?8?$AA@ 10025ee8     LIBCMT:undname.obj
 0002:00004f00       ??_C@_08OBABFOLI@?$GAstring?8?$AA@ 10025f00     LIBCMT:undname.obj
 0002:00004f0c       ??_C@_0BD@JDLKDPAB@?$GAvbase?5destructor?8?$AA@ 10025f0c     LIBCMT:undname.obj
 0002:00004f20       ??_C@_0BN@DEGPLNFK@?$GAvector?5deleting?5destructor?8?$AA@ 10025f20     LIBCMT:undname.obj
 0002:00004f40       ??_C@_0BO@OBMKPJIG@?$GAdefault?5constructor?5closure?8?$AA@ 10025f40     LIBCMT:undname.obj
 0002:00004f60       ??_C@_0BN@IMDCHIKM@?$GAscalar?5deleting?5destructor?8?$AA@ 10025f60     LIBCMT:undname.obj
 0002:00004f80       ??_C@_0BO@PFGOCPJJ@?$GAvector?5constructor?5iterator?8?$AA@ 10025f80     LIBCMT:undname.obj
 0002:00004fa0       ??_C@_0BN@LFPFMEDL@?$GAvector?5destructor?5iterator?8?$AA@ 10025fa0     LIBCMT:undname.obj
 0002:00004fc0       ??_C@_0CE@IKBNEHA@?$GAvector?5vbase?5constructor?5iterat@ 10025fc0     LIBCMT:undname.obj
 0002:00004fe4       ??_C@_0BL@NILFHHPC@?$GAvirtual?5displacement?5map?8?$AA@ 10025fe4     LIBCMT:undname.obj
 0002:00005000       ??_C@_0CB@JONCMFFK@?$GAeh?5vector?5constructor?5iterator?8@ 10026000     LIBCMT:undname.obj
 0002:00005024       ??_C@_0CA@GCEOPDGL@?$GAeh?5vector?5destructor?5iterator?8?$AA@ 10026024     LIBCMT:undname.obj
 0002:00005044       ??_C@_0CH@OOJPLCPH@?$GAeh?5vector?5vbase?5constructor?5ite@ 10026044     LIBCMT:undname.obj
 0002:0000506c       ??_C@_0BL@LLKPOHJI@?$GAcopy?5constructor?5closure?8?$AA@ 1002606c     LIBCMT:undname.obj
 0002:00005088       ??_C@_0BA@KBCDOMBN@?$GAudt?5returning?8?$AA@ 10026088     LIBCMT:undname.obj
 0002:00005098       ??_C@_03KLGMFNMG@?$GAEH?$AA@ 10026098     LIBCMT:undname.obj
 0002:0000509c       ??_C@_05KHLCHHI@?$GARTTI?$AA@ 1002609c     LIBCMT:undname.obj
 0002:000050a4       ??_C@_0BA@KKLDJDLB@?$GAlocal?5vftable?8?$AA@ 100260a4     LIBCMT:undname.obj
 0002:000050b4       ??_C@_0CE@IIHCMGGL@?$GAlocal?5vftable?5constructor?5closu@ 100260b4     LIBCMT:undname.obj
 0002:000050d8       ??_C@_06FHBGPFGH@?5new?$FL?$FN?$AA@ 100260d8     LIBCMT:undname.obj
 0002:000050e0       ??_C@_09LBNFPBCA@?5delete?$FL?$FN?$AA@ 100260e0     LIBCMT:undname.obj
 0002:000050ec       ??_C@_0P@HJKNJFNN@?$GAomni?5callsig?8?$AA@ 100260ec     LIBCMT:undname.obj
 0002:000050fc       ??_C@_0BL@CNOONJFP@?$GAplacement?5delete?5closure?8?$AA@ 100260fc     LIBCMT:undname.obj
 0002:00005118       ??_C@_0BN@CKNJLHMB@?$GAplacement?5delete?$FL?$FN?5closure?8?$AA@ 10026118     LIBCMT:undname.obj
 0002:00005138       ??_C@_0CG@CFDHKGGD@?$GAmanaged?5vector?5constructor?5iter@ 10026138     LIBCMT:undname.obj
 0002:00005160       ??_C@_0CF@IMGKMJNO@?$GAmanaged?5vector?5destructor?5itera@ 10026160     LIBCMT:undname.obj
 0002:00005188       ??_C@_0CG@HLDDJMAG@?$GAeh?5vector?5copy?5constructor?5iter@ 10026188     LIBCMT:undname.obj
 0002:000051b0       ??_C@_0CM@FCBBDIGB@?$GAeh?5vector?5vbase?5copy?5constructo@ 100261b0     LIBCMT:undname.obj
 0002:000051dc       ??_C@_0BL@CLIPGLGB@?$GAdynamic?5initializer?5for?5?8?$AA@ 100261dc     LIBCMT:undname.obj
 0002:000051f8       ??_C@_0CB@PDBIFEP@?$GAdynamic?5atexit?5destructor?5for?5?8@ 100261f8     LIBCMT:undname.obj
 0002:0000521c       ??_C@_0CD@CGAJBKEJ@?$GAvector?5copy?5constructor?5iterato@ 1002621c     LIBCMT:undname.obj
 0002:00005240       ??_C@_0CJ@GJELGAMM@?$GAvector?5vbase?5copy?5constructor?5i@ 10026240     LIBCMT:undname.obj
 0002:0000526c       ??_C@_0CL@FGIJHLCE@?$GAmanaged?5vector?5copy?5constructor@ 1002626c     LIBCMT:undname.obj
 0002:00005298       ??_C@_0BM@PMGGMLDN@?$GAlocal?5static?5thread?5guard?8?$AA@ 10026298     LIBCMT:undname.obj
 0002:000052b4       ??_C@_0BC@DAFEJGAK@?5Type?5Descriptor?8?$AA@ 100262b4     LIBCMT:undname.obj
 0002:000052c8       ??_C@_0BM@LDKODKLH@?5Base?5Class?5Descriptor?5at?5?$CI?$AA@ 100262c8     LIBCMT:undname.obj
 0002:000052e4       ??_C@_0BD@LGICGFMM@?5Base?5Class?5Array?8?$AA@ 100262e4     LIBCMT:undname.obj
 0002:000052f8       ??_C@_0BN@MECKDCOJ@?5Class?5Hierarchy?5Descriptor?8?$AA@ 100262f8     LIBCMT:undname.obj
 0002:00005318       ??_C@_0BK@CFCOFLF@?5Complete?5Object?5Locator?8?$AA@ 10026318     LIBCMT:undname.obj
 0002:00005334       ??_C@_06OJHGLDPL@?$CInull?$CJ?$AA@ 10026334     LIBCMT:output.obj
 0002:0000533c       ??_C@_1O@CEDCILHN@?$AA?$CI?$AAn?$AAu?$AAl?$AAl?$AA?$CJ?$AA?$AA@ 1002633c     LIBCMT:output.obj
 0002:00005350       ___lookuptable             10026350     LIBCMT:output.obj
 0002:000053b0       ___lookuptable_s           100263b0     LIBCMT:outputs.obj
 0002:0000540c       ??_C@_06PGGFOGJG@1?$CDSNAN?$AA@ 1002640c     LIBCMT:x10fout.obj
 0002:00005414       ??_C@_05PHHOCPM@1?$CDIND?$AA@ 10026414     LIBCMT:x10fout.obj
 0002:0000541c       ??_C@_05DNEBIAHO@1?$CDINF?$AA@ 1002641c     LIBCMT:x10fout.obj
 0002:00005424       ??_C@_06IMKFLFPG@1?$CDQNAN?$AA@ 10026424     LIBCMT:x10fout.obj
 0002:0000542c       ??_C@_1BA@BALFACEM@?$AAC?$AAO?$AAN?$AAO?$AAU?$AAT?$AA$?$AA?$AA@ 1002642c     LIBCMT:initcon.obj
 0002:0000543c       ??_C@_04IHONJAFL@make?$AA@ 1002643c     binding.obj
 0002:00005444       ??_C@_07ONPFMHHK@convert?$AA@ 10026444     binding.obj
 0002:0000544c       ??_C@_06HIMGHAFD@EINVAL?$AA@ 1002644c     binding.obj
 0002:00005454       ??_C@_06MNLNBHMB@EILSEQ?$AA@ 10026454     binding.obj
 0002:0000545c       ??_C@_05DLCHNBFO@E2BIG?$AA@ 1002645c     binding.obj
 0002:00005464       ??_C@_0BC@OMDPIAIO@?4?4?2src?2binding?4cc?$AA@ 10026464     binding.obj
 0002:00005478       ??_C@_08NJCMPDLN@libiconv?$AA@ 10026478     binding.obj
 0002:00005484       ??_C@_08HCOMDCCD@iojs?4exe?$AA@ 10026484     win_delay_load_hook.obj
 0002:00005490       ??_C@_08JDDNMFDB@node?4exe?$AA@ 10026490     win_delay_load_hook.obj
 0002:00005499       ??_C@_00CNPNBAHC@?$AA@     10026499     libiconv:iconv.obj
 0002:000e1110       __load_config_used         10102110     LIBCMT:loadcfg.obj
 0002:000e11f8       ??_R1A@?0A@EA@exception@std@@8 101021f8     libcpmt:xthrow.obj
 0002:000e1214       ??_R3exception@std@@8      10102214     libcpmt:xthrow.obj
 0002:000e1224       ??_R2exception@std@@8      10102224     libcpmt:xthrow.obj
 0002:000e122c       ??_R4bad_alloc@std@@6B@    1010222c     libcpmt:xthrow.obj
 0002:000e1240       ??_R3bad_alloc@std@@8      10102240     libcpmt:xthrow.obj
 0002:000e1250       ??_R2bad_alloc@std@@8      10102250     libcpmt:xthrow.obj
 0002:000e125c       ??_R1A@?0A@EA@bad_alloc@std@@8 1010225c     libcpmt:xthrow.obj
 0002:000e1278       ??_R4type_info@@6B@        10102278     LIBCMT:typinfo.obj
 0002:000e128c       ??_R3type_info@@8          1010228c     LIBCMT:typinfo.obj
 0002:000e129c       ??_R2type_info@@8          1010229c     LIBCMT:typinfo.obj
 0002:000e12a4       ??_R1A@?0A@EA@type_info@@8 101022a4     LIBCMT:typinfo.obj
 0002:000e12c0       ??_R4exception@std@@6B@    101022c0     LIBCMT:stdexcpt.obj
 0002:000e12e0       ___safe_se_handler_table   101022e0     <linker-defined>
 0002:000e12ec       ___rtc_iaa                 101022ec     LIBCMT:initsect.obj
 0002:000e12f0       ___rtc_izz                 101022f0     LIBCMT:initsect.obj
 0002:000e12f4       ___rtc_taa                 101022f4     LIBCMT:initsect.obj
 0002:000e12f8       ___rtc_tzz                 101022f8     LIBCMT:initsect.obj
 0002:000e1300       __TI2?AVbad_alloc@std@@    10102300     libcpmt:xthrow.obj
 0002:000e1310       __CTA2?AVbad_alloc@std@@   10102310     libcpmt:xthrow.obj
 0002:000e131c       __CT??_R0?AVbad_alloc@std@@@8??0bad_alloc@std@@QAE@ABV01@@Z12 1010231c     libcpmt:xthrow.obj
 0002:000e1338       __CT??_R0?AVexception@std@@@8??0exception@std@@QAE@ABV01@@Z12 10102338     libcpmt:xthrow.obj
 0002:000e168c       __DELAY_IMPORT_DESCRIPTOR_node_exe 1010268c     node:node.exe
 0002:000e16ac       __NULL_DELAY_IMPORT_DESCRIPTOR 101026ac     node:node.exe
 0002:000e175c       \177node_NULL_THUNK_DATA_DLN 1010275c     node:node.exe
 0002:000e2094       \177node_NULL_THUNK_DATA_DLB 10103094     node:node.exe
 0002:000e2184       __IMPORT_DESCRIPTOR_KERNEL32 10103184     kernel32:KERNEL32.dll
 0002:000e2198       __NULL_IMPORT_DESCRIPTOR   10103198     kernel32:KERNEL32.dll
 0003:000001cc       ___abort_behavior          101041cc     LIBCMT:abort.obj
 0003:000001d0       __fltused                  101041d0     LIBCMT:fpinit.obj
 0003:000001d4       __ldused                   101041d4     LIBCMT:fpinit.obj
 0003:000001d8       ___security_cookie         101041d8     LIBCMT:gs_cookie.obj
 0003:000001dc       ___security_cookie_complement 101041dc     LIBCMT:gs_cookie.obj
 0003:000001e0       ___isa_enabled             101041e0     LIBCMT:cpu_disp.obj
 0003:000001e4       ___flsindex                101041e4     LIBCMT:tidtable.obj
 0003:000001e8       __iob                      101041e8     LIBCMT:_file.obj
 0003:00000478       __d_inf                    10104478     LIBCMT:util.obj
 0003:00000480       __d_ind                    10104480     LIBCMT:util.obj
 0003:00000488       __d_max                    10104488     LIBCMT:util.obj
 0003:00000490       __d_min                    10104490     LIBCMT:util.obj
 0003:00000498       __d_mzero                  10104498     LIBCMT:util.obj
 0003:000005a8       __mbctype                  101045a8     LIBCMT:mbctype.obj
 0003:000006b0       __mbcasemap                101046b0     LIBCMT:mbctype.obj
 0003:000007b0       ___initialmbcinfo          101047b0     LIBCMT:mbctype.obj
 0003:000009d4       ___ptmbcinfo               101049d4     LIBCMT:mbctype.obj
 0003:00000ac8       ___mb_cur_max              10104ac8     LIBCMT:nlsdata.obj
 0003:00000acc       ___wclocalestr             10104acc     LIBCMT:nlsdata.obj
 0003:00000ad0       ___lc_time_c               10104ad0     LIBCMT:nlsdata.obj
 0003:00000c34       ___ptlocinfo               10104c34     LIBCMT:nlsdata.obj
 0003:00000c38       ___initiallocinfo          10104c38     LIBCMT:nlsdata.obj
 0003:00000cf0       ___globallocalestatus      10104cf0     LIBCMT:glstatus.obj
 0003:00000cf8       ___badioinfo               10104cf8     LIBCMT:ioinit.obj
 0003:00000d40       __cfltcvt_tab              10104d40     LIBCMT:cmiscdat.obj
 0003:00000e90       __matherr_flag             10104e90     LIBCMT:matherr.obj
 0003:00000e98       ___lconv                   10104e98     LIBCMT:lconv.obj
 0003:00000e9c       ___lconv_static_decimal    10104e9c     LIBCMT:lconv.obj
 0003:00000ea0       ___lconv_c                 10104ea0     LIBCMT:lconv.obj
 0003:00000ef0       ___lconv_static_W_decimal  10104ef0     LIBCMT:lconv.obj
 0003:00000ef4       __pctype                   10104ef4     LIBCMT:ctype.obj
 0003:00000ef8       __pwctype                  10104ef8     LIBCMT:ctype.obj
 0003:00000f00       __NLG_Destination          10104f00     LIBCMT:exsup.obj
 0003:00000f10       ___nullstring              10104f10     LIBCMT:output.obj
 0003:00000f14       ___wnullstring             10104f14     LIBCMT:output.obj
 0003:00000f50       __confh                    10104f50     LIBCMT:initcon.obj
 0003:00000f58       __pow10pos                 10104f58     LIBCMT:constpow.obj
 0003:000010b8       __pow10neg                 101050b8     LIBCMT:constpow.obj
 0003:00001220       __HUGE                     10105220     LIBCMT:huge.obj
 0003:0000124c       ___pfnDliNotifyHook2       1010524c     win_delay_load_hook.obj
 0003:00001250       ??_R0?AVbad_alloc@std@@@8  10105250     libcpmt:xthrow.obj
 0003:0000126c       ??_R0?AVexception@std@@@8  1010526c     libcpmt:xthrow.obj
 0003:00001288       ??_R0?AVtype_info@@@8      10105288     LIBCMT:typinfo.obj
 0003:000012a0       __imp_?Data@Buffer@node@@YAPADV?$Local@VObject@v8@@@v8@@@Z 101052a0     node:node.exe
 0003:000012a4       __imp__node_module_register 101052a4     node:node.exe
 0003:000012a8       __imp_?ToLocalEmpty@V8@v8@@CAXXZ 101052a8     node:node.exe
 0003:000012ac       __imp_?MakeWeak@V8@v8@@CAXPAPAVObject@internal@2@PAXP6AXABV?$WeakCallbackInfo@X@2@@ZW4WeakCallbackType@2@@Z 101052ac     node:node.exe
 0003:000012b0       __imp_?DisposeGlobal@V8@v8@@CAXPAPAVObject@internal@2@@Z 101052b0     node:node.exe
 0003:000012b4       __imp_?GlobalizeReference@V8@v8@@CAPAPAVObject@internal@2@PAVIsolate@42@PAPAV342@@Z 101052b4     node:node.exe
 0003:000012b8       __imp_?Escape@EscapableHandleScope@v8@@AAEPAPAVObject@internal@2@PAPAV342@@Z 101052b8     node:node.exe
 0003:000012bc       __imp_??0EscapableHandleScope@v8@@QAE@PAVIsolate@1@@Z 101052bc     node:node.exe
 0003:000012c0       __imp_?Uint32Value@Value@v8@@QBEIXZ 101052c0     node:node.exe
 0003:000012c4       __imp_?BooleanValue@Value@v8@@QBE_NXZ 101052c4     node:node.exe
 0003:000012c8       __imp_?ToInteger@Value@v8@@QBE?AV?$MaybeLocal@VInteger@v8@@@2@V?$Local@VContext@v8@@@2@@Z 101052c8     node:node.exe
 0003:000012cc       __imp_?GetFunction@FunctionTemplate@v8@@QAE?AV?$Local@VFunction@v8@@@2@XZ 101052cc     node:node.exe
 0003:000012d0       __imp_?New@FunctionTemplate@v8@@SA?AV?$Local@VFunctionTemplate@v8@@@2@PAVIsolate@2@P6AXABV?$FunctionCallbackInfo@VValue@v8@@@2@@ZV?$Local@VValue@v8@@@2@V?$Local@VSignature@v8@@@2@H@Z 101052d0     node:node.exe
 0003:000012d4       __imp_??1Utf8Value@String@v8@@QAE@XZ 101052d4     node:node.exe
 0003:000012d8       __imp_??0Utf8Value@String@v8@@QAE@V?$Local@VValue@v8@@@2@@Z 101052d8     node:node.exe
 0003:000012dc       __imp_?NewFromUtf8@String@v8@@SA?AV?$MaybeLocal@VString@v8@@@2@PAVIsolate@2@PBDW4NewStringType@2@H@Z 101052dc     node:node.exe
 0003:000012e0       __imp_?CreateHandle@HandleScope@v8@@KAPAPAVObject@internal@2@PAVIsolate@42@PAV342@@Z 101052e0     node:node.exe
 0003:000012e4       __imp_?CreateHandle@HandleScope@v8@@CAPAPAVObject@internal@2@PAVHeapObject@42@PAV342@@Z 101052e4     node:node.exe
 0003:000012e8       __imp_??1HandleScope@v8@@QAE@XZ 101052e8     node:node.exe
 0003:000012ec       __imp_?SlowGetAlignedPointerFromInternalField@Object@v8@@AAEPAXH@Z 101052ec     node:node.exe
 0003:000012f0       __imp_?SlowGetInternalField@Object@v8@@AAE?AV?$Local@VValue@v8@@@2@H@Z 101052f0     node:node.exe
 0003:000012f4       __imp_?SetAlignedPointerInInternalField@Object@v8@@QAEXHPAX@Z 101052f4     node:node.exe
 0003:000012f8       __imp_?SetInternalField@Object@v8@@QAEXHV?$Local@VValue@v8@@@2@@Z 101052f8     node:node.exe
 0003:000012fc       __imp_?Set@Object@v8@@QAE_NV?$Local@VValue@v8@@@2@0@Z 101052fc     node:node.exe
 0003:00001300       __imp_?Set@Object@v8@@QAE_NIV?$Local@VValue@v8@@@2@@Z 10105300     node:node.exe
 0003:00001304       __imp_?SetInternalFieldCount@ObjectTemplate@v8@@QAEXH@Z 10105304     node:node.exe
 0003:00001308       __imp_?NewInstance@ObjectTemplate@v8@@QAE?AV?$Local@VObject@v8@@@2@XZ 10105308     node:node.exe
 0003:0000130c       __imp_?NewInstance@ObjectTemplate@v8@@QAE?AV?$MaybeLocal@VObject@v8@@@2@V?$Local@VContext@v8@@@2@@Z 1010530c     node:node.exe
 0003:00001310       __imp_?New@ObjectTemplate@v8@@SA?AV?$Local@VObjectTemplate@v8@@@2@PAVIsolate@2@V?$Local@VFunctionTemplate@v8@@@2@@Z 10105310     node:node.exe
 0003:00001314       __imp_?New@ObjectTemplate@v8@@SA?AV?$Local@VObjectTemplate@v8@@@2@XZ 10105314     node:node.exe
 0003:00001318       __imp_?NewFromUnsigned@Integer@v8@@SA?AV?$Local@VInteger@v8@@@2@PAVIsolate@2@I@Z 10105318     node:node.exe
 0003:0000131c       __imp_?New@Integer@v8@@SA?AV?$Local@VInteger@v8@@@2@PAVIsolate@2@H@Z 1010531c     node:node.exe
 0003:00001320       __imp_?GetCurrentContext@Isolate@v8@@QAE?AV?$Local@VContext@v8@@@2@XZ 10105320     node:node.exe
 0003:00001324       __imp_?GetCurrent@Isolate@v8@@SAPAV12@XZ 10105324     node:node.exe
 0003:00001328       __imp_?Value@External@v8@@QBEPAXXZ 10105328     node:node.exe
 0003:0000132c       __imp_?New@External@v8@@SA?AV?$Local@VExternal@v8@@@2@PAVIsolate@2@PAX@Z 1010532c     node:node.exe
 0003:00001330       \177node_NULL_THUNK_DATA_DLA 10105330     node:node.exe
 0003:00001340       __hmod__node_exe           10105340     node:node.exe
 0003:00001350       __aenvptr                  10105350     LIBCMT:dllcrt0.obj
 0003:00001354       __wenvptr                  10105354     LIBCMT:dllcrt0.obj
 0003:00001358       ___fastflag                10105358     LIBCMT:fpinit.obj
 0003:00001680       ___isa_available           10105680     LIBCMT:cpu_disp.obj
 0003:00001684       ___favor                   10105684     LIBCMT:cpu_disp.obj
 0003:00001688       ___pInvalidArgHandler      10105688     LIBCMT:invarg.obj
 0003:0000168c       __C_Exit_Done              1010568c     LIBCMT:crt0dat.obj
 0003:00001690       ___argc                    10105690     LIBCMT:crt0dat.obj
 0003:00001694       ___argv                    10105694     LIBCMT:crt0dat.obj
 0003:00001698       ___wargv                   10105698     LIBCMT:crt0dat.obj
 0003:0000169c       __environ                  1010569c     LIBCMT:crt0dat.obj
 0003:000016a0       __wenviron                 101056a0     LIBCMT:crt0dat.obj
 0003:000016a4       __pgmptr                   101056a4     LIBCMT:crt0dat.obj
 0003:000016a8       __wpgmptr                  101056a8     LIBCMT:crt0dat.obj
 0003:000016ac       __umaskval                 101056ac     LIBCMT:crt0dat.obj
 0003:000016b0       __exitflag                 101056b0     LIBCMT:crt0dat.obj
 0003:000016b4       __C_Termination_Done       101056b4     LIBCMT:crt0dat.obj
 0003:000016b8       ___winitenv                101056b8     LIBCMT:crt0dat.obj
 0003:000016bc       ___initenv                 101056bc     LIBCMT:crt0dat.obj
 0003:000016c0       ___error_mode              101056c0     LIBCMT:errmode.obj
 0003:000016c4       __cflush                   101056c4     LIBCMT:_file.obj
 0003:000016f0       ___app_type                101056f0     LIBCMT:crt0msg.obj
 0003:00001d20       __maxwait                  10105d20     LIBCMT:crtheap.obj
 0003:00001d24       ___pPurecall               10105d24     LIBCMT:inithelp.obj
 0003:00001d28       ?_pnhHeap@@3P6AHI@ZA       10105d28     LIBCMT:handler.obj
 0003:00001d2c       ___mbcodepage              10105d2c     LIBCMT:mbctype.obj
 0003:00001d30       ___ismbcodepage            10105d30     LIBCMT:mbctype.obj
 0003:00001d34       ___mbulinfo                10105d34     LIBCMT:mbctype.obj
 0003:00001d40       ___mblocalename            10105d40     LIBCMT:mbctype.obj
 0003:00001d48       ___locale_changed          10105d48     LIBCMT:wsetloca.obj
 0003:00001d4c       __crtheap                  10105d4c     LIBCMT:heapinit.obj
 0003:00001d50       ___pioinfo                 10105d50     LIBCMT:ioinit.obj
 0003:00001f58       __newmode                  10105f58     LIBCMT:_newmode.obj
 0003:00001f5c       ?__pInconsistency@@3P6AXXZA 10105f5c     LIBCMT:hooks.obj
 0003:00001f60       ?g_OutOfMemoryExceptionCallback@@3P6GPAXXZA 10105f60     LIBCMT:frame.obj
 0003:000020c4       __stdbuf                   101060c4     LIBCMT:_sftbuf.obj
 0003:000020d0       ___lconv_static_null       101060d0     LIBCMT:lconv.obj
 0003:000020d4       ___lconv_static_W_null     101060d4     LIBCMT:lconv.obj
 0003:000020d8       ?pArgList@UnDecorator@@0PAVReplicator@@A 101060d8     LIBCMT:undname.obj
 0003:000020dc       ?pZNameList@UnDecorator@@0PAVReplicator@@A 101060dc     LIBCMT:undname.obj
 0003:000020e0       ?pTemplateArgList@UnDecorator@@0PAVReplicator@@A 101060e0     LIBCMT:undname.obj
 0003:000020e4       ?gName@UnDecorator@@0PBDB  101060e4     LIBCMT:undname.obj
 0003:000020e8       ?name@UnDecorator@@0PBDB   101060e8     LIBCMT:undname.obj
 0003:000020ec       ?outputString@UnDecorator@@0PADA 101060ec     LIBCMT:undname.obj
 0003:000020f0       ?maxStringLength@UnDecorator@@0HA 101060f0     LIBCMT:undname.obj
 0003:000020f4       ?disableFlags@UnDecorator@@0KA 101060f4     LIBCMT:undname.obj
 0003:000020f8       ?fExplicitTemplateParams@UnDecorator@@0_NA 101060f8     LIBCMT:undname.obj
 0003:000020f9       ?fGetTemplateArgumentList@UnDecorator@@0_NA 101060f9     LIBCMT:undname.obj
 0003:000020fc       ?m_pGetParameter@UnDecorator@@0P6APADJ@ZA 101060fc     LIBCMT:undname.obj
 0003:00002114       __outputformat             10106114     LIBCMT:outputformat.obj
 0003:0000211c       ___pfnDliFailureHook2      1010611c     DelayImp:delayhk1.obj
 0003:00002120       ?id@?$num_put@_WV?$back_insert_iterator@V?$basic_string@_WU?$char_traits@_W@std@@V?$allocator@_W@2@@std@@@std@@@std@@2V0locale@2@A 10106120     binding.obj
 0003:00002124       ?_System_object@?$_Error_objects@H@std@@2V_System_error_category@2@A 10106124     binding.obj
 0003:00002128       ?id@?$numpunct@_W@std@@2V0locale@2@A 10106128     binding.obj
 0003:0000212c       ?id@?$num_put@DV?$back_insert_iterator@V?$basic_string@DU?$char_traits@D@std@@V?$allocator@D@2@@std@@@std@@@std@@2V0locale@2@A 1010612c     binding.obj
 0003:00002130       ?_Generic_object@?$_Error_objects@H@std@@2V_Generic_error_category@2@A 10106130     binding.obj
 0003:00002134       ?id@?$numpunct@D@std@@2V0locale@2@A 10106134     binding.obj
 0003:0000213c       ?object_template@Iconv@?A0x81a5d862@@2V?$Persistent@VObjectTemplate@v8@@V?$NonCopyablePersistentTraits@VObjectTemplate@v8@@@2@@Nan@@A 1010613c     binding.obj
 0003:00002140       ?_Iostream_object@?$_Error_objects@H@std@@2V_Iostream_error_category@2@A 10106140     binding.obj
 0003:00002144       __debugger_hook_dummy      10106144     <common>
 0003:00002160       _encodedKERNEL32Functions  10106160     <common>
 0003:000021e4       __nhandle                  101061e4     <common>
 0003:00002200       __bufin                    10106200     <common>
 0003:00003200       ___piob                    10107200     <common>
 0003:00003204       __nstream                  10107204     <common>
 0003:00003208       ___dyn_tls_init_callback   10107208     <common>
 0003:0000320c       ___onexitend               1010720c     <common>
 0003:00003210       ___onexitbegin             10107210     <common>
 0003:00003214       ___mbctype_initialized     10107214     <common>
 0003:00003218       ___env_initialized         10107218     <common>
 0003:0000321c       __acmdln                   1010721c     <common>

 entry point at        0001:00014a81

 Static symbols

 0000:ffef4000       .debug$S                   10000000     kernel32:KERNEL32.dll
 0000:ffef4000       .debug$S                   10000000     kernel32:KERNEL32.dll
 0000:ffef4000       .debug$S                   10000000     kernel32:KERNEL32.dll
 0000:ffef4000       .debug$S                   10000000     kernel32:KERNEL32.dll
 0000:ffef4000       .debug$S                   10000000     kernel32:KERNEL32.dll
 0000:ffef4000       .debug$S                   10000000     kernel32:KERNEL32.dll
 0000:ffef4000       .debug$S                   10000000     kernel32:KERNEL32.dll
 0000:ffef4000       .debug$S                   10000000     kernel32:KERNEL32.dll
 0000:ffef4000       .debug$S                   10000000     kernel32:KERNEL32.dll
 0000:ffef4000       .debug$S                   10000000     kernel32:KERNEL32.dll
 0000:ffef4000       .debug$S                   10000000     kernel32:KERNEL32.dll
 0000:ffef4000       .debug$S                   10000000     kernel32:KERNEL32.dll
 0000:ffef4000       .debug$S                   10000000     kernel32:KERNEL32.dll
 0000:ffef4000       .debug$S                   10000000     kernel32:KERNEL32.dll
 0000:ffef4000       .debug$S                   10000000     kernel32:KERNEL32.dll
 0000:ffef4000       .debug$S                   10000000     kernel32:KERNEL32.dll
 0000:ffef4000       .debug$S                   10000000     kernel32:KERNEL32.dll
 0000:ffef4000       .debug$S                   10000000     kernel32:KERNEL32.dll
 0000:ffef4000       .debug$S                   10000000     kernel32:KERNEL32.dll
 0000:ffef4000       .debug$S                   10000000     node:node.exe
 0000:ffef4000       .debug$S                   10000000     node:node.exe
 0000:ffef4000       .debug$S                   10000000     node:node.exe
 0000:ffef4000       .debug$S                   10000000     node:node.exe
 0000:ffef4000       .debug$S                   10000000     node:node.exe
 0000:ffef4000       .debug$S                   10000000     node:node.exe
 0000:ffef4000       .debug$S                   10000000     node:node.exe
 0000:ffef4000       .debug$S                   10000000     node:node.exe
 0000:ffef4000       .debug$S                   10000000     node:node.exe
 0000:ffef4000       .debug$S                   10000000     node:node.exe
 0000:ffef4000       .debug$S                   10000000     node:node.exe
 0000:ffef4000       .debug$S                   10000000     node:node.exe
 0000:ffef4000       .debug$S                   10000000     node:node.exe
 0000:ffef4000       .debug$S                   10000000     node:node.exe
 0000:ffef4000       .debug$S                   10000000     node:node.exe
 0000:ffef4000       .debug$S                   10000000     node:node.exe
 0000:ffef4000       .debug$S                   10000000     node:node.exe
 0000:ffef4000       .debug$S                   10000000     node:node.exe
 0000:ffef4000       .debug$S                   10000000     node:node.exe
 0000:ffef4000       .debug$S                   10000000     node:node.exe
 0000:ffef4000       .debug$S                   10000000     node:node.exe
 0000:ffef4000       .debug$S                   10000000     node:node.exe
 0000:ffef4000       .debug$S                   10000000     node:node.exe
 0000:ffef4000       .debug$S                   10000000     node:node.exe
 0000:ffef4000       .debug$S                   10000000     node:node.exe
 0000:ffef4000       .debug$S                   10000000     node:node.exe
 0000:ffef4000       .debug$S                   10000000     node:node.exe
 0000:ffef4000       .debug$S                   10000000     node:node.exe
 0000:ffef4000       .debug$S                   10000000     node:node.exe
 0000:ffef4000       .debug$S                   10000000     node:node.exe
 0000:ffef4000       .debug$S                   10000000     node:node.exe
 0000:ffef4000       .debug$S                   10000000     node:node.exe
 0000:ffef4000       .debug$S                   10000000     node:node.exe
 0000:ffef4000       .debug$S                   10000000     node:node.exe
 0000:ffef4000       .debug$S                   10000000     node:node.exe
 0000:ffef4000       .debug$S                   10000000     node:node.exe
 0000:ffef4000       .debug$S                   10000000     node:node.exe
 0000:ffef4000       .debug$S                   10000000     node:node.exe
 0000:ffef4000       .debug$S                   10000000     node:node.exe
 0000:ffef4000       .debug$S                   10000000     node:node.exe
 0000:ffef4000       .debug$S                   10000000     node:node.exe
 0000:ffef4000       .debug$S                   10000000     node:node.exe
 0000:ffef4000       .debug$S                   10000000     node:node.exe
 0000:ffef4000       .debug$S                   10000000     node:node.exe
 0000:ffef4000       .debug$S                   10000000     node:node.exe
 0000:ffef4000       .debug$S                   10000000     kernel32:KERNEL32.dll
 0000:ffef4000       .debug$S                   10000000     kernel32:KERNEL32.dll
 0000:ffef4000       .debug$S                   10000000     kernel32:KERNEL32.dll
 0000:ffef4000       .debug$S                   10000000     kernel32:KERNEL32.dll
 0000:ffef4000       .debug$S                   10000000     kernel32:KERNEL32.dll
 0000:ffef4000       .debug$S                   10000000     kernel32:KERNEL32.dll
 0000:ffef4000       .debug$S                   10000000     kernel32:KERNEL32.dll
 0000:ffef4000       .debug$S                   10000000     kernel32:KERNEL32.dll
 0000:ffef4000       .debug$S                   10000000     kernel32:KERNEL32.dll
 0000:ffef4000       .debug$S                   10000000     kernel32:KERNEL32.dll
 0000:ffef4000       .debug$S                   10000000     kernel32:KERNEL32.dll
 0000:ffef4000       .debug$S                   10000000     kernel32:KERNEL32.dll
 0000:ffef4000       .debug$S                   10000000     kernel32:KERNEL32.dll
 0000:ffef4000       .debug$S                   10000000     kernel32:KERNEL32.dll
 0000:ffef4000       .debug$S                   10000000     kernel32:KERNEL32.dll
 0000:ffef4000       .debug$S                   10000000     kernel32:KERNEL32.dll
 0000:ffef4000       .debug$S                   10000000     kernel32:KERNEL32.dll
 0000:ffef4000       .debug$S                   10000000     kernel32:KERNEL32.dll
 0000:ffef4000       .debug$S                   10000000     kernel32:KERNEL32.dll
 0000:ffef4000       .debug$S                   10000000     kernel32:KERNEL32.dll
 0000:ffef4000       .debug$S                   10000000     kernel32:KERNEL32.dll
 0000:ffef4000       .debug$S                   10000000     kernel32:KERNEL32.dll
 0000:ffef4000       .debug$S                   10000000     kernel32:KERNEL32.dll
 0000:ffef4000       .debug$S                   10000000     kernel32:KERNEL32.dll
 0000:ffef4000       .debug$S                   10000000     kernel32:KERNEL32.dll
 0000:ffef4000       .debug$S                   10000000     kernel32:KERNEL32.dll
 0000:ffef4000       .debug$S                   10000000     kernel32:KERNEL32.dll
 0000:ffef4000       .debug$S                   10000000     kernel32:KERNEL32.dll
 0000:ffef4000       .debug$S                   10000000     kernel32:KERNEL32.dll
 0000:ffef4000       .debug$S                   10000000     kernel32:KERNEL32.dll
 0000:ffef4000       .debug$S                   10000000     kernel32:KERNEL32.dll
 0000:ffef4000       .debug$S                   10000000     kernel32:KERNEL32.dll
 0000:ffef4000       .debug$S                   10000000     kernel32:KERNEL32.dll
 0000:ffef4000       .debug$S                   10000000     kernel32:KERNEL32.dll
 0000:ffef4000       .debug$S                   10000000     kernel32:KERNEL32.dll
 0000:ffef4000       .debug$S                   10000000     kernel32:KERNEL32.dll
 0000:ffef4000       .debug$S                   10000000     kernel32:KERNEL32.dll
 0000:ffef4000       .debug$S                   10000000     kernel32:KERNEL32.dll
 0000:ffef4000       .debug$S                   10000000     kernel32:KERNEL32.dll
 0000:ffef4000       .debug$S                   10000000     kernel32:KERNEL32.dll
 0000:ffef4000       .debug$S                   10000000     kernel32:KERNEL32.dll
 0000:ffef4000       .debug$S                   10000000     kernel32:KERNEL32.dll
 0000:ffef4000       .debug$S                   10000000     kernel32:KERNEL32.dll
 0000:ffef4000       .debug$S                   10000000     kernel32:KERNEL32.dll
 0000:ffef4000       .debug$S                   10000000     kernel32:KERNEL32.dll
 0000:ffef4000       .debug$S                   10000000     kernel32:KERNEL32.dll
 0000:ffef4000       .debug$S                   10000000     kernel32:KERNEL32.dll
 0000:ffef4000       .debug$S                   10000000     kernel32:KERNEL32.dll
 0000:ffef4000       .debug$S                   10000000     kernel32:KERNEL32.dll
 0000:ffef4000       .debug$S                   10000000     kernel32:KERNEL32.dll
 0000:ffef4000       .debug$S                   10000000     kernel32:KERNEL32.dll
 0000:ffef4000       .debug$S                   10000000     kernel32:KERNEL32.dll
 0000:ffef4000       .debug$S                   10000000     kernel32:KERNEL32.dll
 0000:ffef4000       .debug$S                   10000000     kernel32:KERNEL32.dll
 0000:ffef4000       .debug$S                   10000000     kernel32:KERNEL32.dll
 0000:ffef4000       .debug$S                   10000000     kernel32:KERNEL32.dll
 0000:ffef4000       .debug$S                   10000000     kernel32:KERNEL32.dll
 0000:ffef4000       .debug$S                   10000000     kernel32:KERNEL32.dll
 0000:ffef4000       .debug$S                   10000000     kernel32:KERNEL32.dll
 0001:00000000       ??__Epiecewise_construct@std@@YAXXZ 10001000 f   binding.obj
 0001:00000010       ??__Eallocator_arg@std@@YAXXZ 10001010 f   binding.obj
 0001:00000020       ??__E?object_template@Iconv@?A0x81a5d862@@2V?$Persistent@VObjectTemplate@v8@@V?$NonCopyablePersistentTraits@VObjectTemplate@v8@@@2@@Nan@@A@@YAXXZ 10001020 f   binding.obj
 0001:00000040       ?FunctionCallbackWrapper@imp@Nan@@YAXABV?$FunctionCallbackInfo@VValue@v8@@@v8@@@Z 10001040 f   binding.obj
 0001:000008f0       __register_libiconv        100018f0 f   binding.obj
 0001:00000950       _load_exe_hook@8           10001950 f   win_delay_load_hook.obj
 0001:000009a0       _ascii_mbtowc              100019a0 f   libiconv:iconv.obj
 0001:000009c0       _ascii_wctomb              100019c0 f   libiconv:iconv.obj
 0001:000009e0       _utf8_mbtowc               100019e0 f   libiconv:iconv.obj
 0001:00000cb0       _utf8_wctomb               10001cb0 f   libiconv:iconv.obj
 0001:00000d94       $LN26                      10001d94     libiconv:iconv.obj
 0001:00000db0       _ucs2_mbtowc               10001db0 f   libiconv:iconv.obj
 0001:00000e50       _ucs2_wctomb               10001e50 f   libiconv:iconv.obj
 0001:00000ea0       _ucs2be_mbtowc             10001ea0 f   libiconv:iconv.obj
 0001:00000ee0       _ucs2be_wctomb             10001ee0 f   libiconv:iconv.obj
 0001:00000f30       _ucs2le_mbtowc             10001f30 f   libiconv:iconv.obj
 0001:00000f70       _ucs2le_wctomb             10001f70 f   libiconv:iconv.obj
 0001:00000fb0       _ucs4_mbtowc               10001fb0 f   libiconv:iconv.obj
 0001:00001070       _ucs4_wctomb               10002070 f   libiconv:iconv.obj
 0001:000010c0       _ucs4be_mbtowc             100020c0 f   libiconv:iconv.obj
 0001:00001100       _ucs4be_wctomb             10002100 f   libiconv:iconv.obj
 0001:00001140       _ucs4le_mbtowc             10002140 f   libiconv:iconv.obj
 0001:00001180       _ucs4le_wctomb             10002180 f   libiconv:iconv.obj
 0001:000011c0       _utf16_mbtowc              100021c0 f   libiconv:iconv.obj
 0001:000012b0       _utf16_wctomb              100022b0 f   libiconv:iconv.obj
 0001:00001390       _utf16be_mbtowc            10002390 f   libiconv:iconv.obj
 0001:00001420       _utf16be_wctomb            10002420 f   libiconv:iconv.obj
 0001:000014b0       _utf16le_mbtowc            100024b0 f   libiconv:iconv.obj
 0001:00001540       _utf16le_wctomb            10002540 f   libiconv:iconv.obj
 0001:000015d0       _utf32_mbtowc              100025d0 f   libiconv:iconv.obj
 0001:000016a0       _utf32_wctomb              100026a0 f   libiconv:iconv.obj
 0001:00001730       _utf32be_mbtowc            10002730 f   libiconv:iconv.obj
 0001:00001790       _utf32be_wctomb            10002790 f   libiconv:iconv.obj
 0001:000017e0       _utf32le_mbtowc            100027e0 f   libiconv:iconv.obj
 0001:00001840       _utf32le_wctomb            10002840 f   libiconv:iconv.obj
 0001:00001890       _utf7_mbtowc               10002890 f   libiconv:iconv.obj
 0001:00001b20       $LN62                      10002b20     libiconv:iconv.obj
 0001:00001b30       _utf7_wctomb               10002b30 f   libiconv:iconv.obj
 0001:00001dc8       $LN64                      10002dc8     libiconv:iconv.obj
 0001:00001de0       _utf7_reset                10002de0 f   libiconv:iconv.obj
 0001:00001e90       _ucs2internal_mbtowc       10002e90 f   libiconv:iconv.obj
 0001:00001ed0       _ucs2internal_wctomb       10002ed0 f   libiconv:iconv.obj
 0001:00001f10       _ucs2swapped_mbtowc        10002f10 f   libiconv:iconv.obj
 0001:00001f50       _ucs2swapped_wctomb        10002f50 f   libiconv:iconv.obj
 0001:00001f90       _ucs4internal_mbtowc       10002f90 f   libiconv:iconv.obj
 0001:00001fb0       _ucs4internal_wctomb       10002fb0 f   libiconv:iconv.obj
 0001:00001fd0       _ucs4swapped_mbtowc        10002fd0 f   libiconv:iconv.obj
 0001:00002020       _ucs4swapped_wctomb        10003020 f   libiconv:iconv.obj
 0001:00002060       _c99_mbtowc                10003060 f   libiconv:iconv.obj
 0001:000021e0       _c99_wctomb                100031e0 f   libiconv:iconv.obj
 0001:00002260       _java_mbtowc               10003260 f   libiconv:iconv.obj
 0001:000023d0       _java_wctomb               100033d0 f   libiconv:iconv.obj
 0001:00002570       _iso8859_1_mbtowc          10003570 f   libiconv:iconv.obj
 0001:00002590       _iso8859_1_wctomb          10003590 f   libiconv:iconv.obj
 0001:000025b0       _iso8859_2_mbtowc          100035b0 f   libiconv:iconv.obj
 0001:000025e0       _iso8859_2_wctomb          100035e0 f   libiconv:iconv.obj
 0001:00002630       _iso8859_3_mbtowc          10003630 f   libiconv:iconv.obj
 0001:00002670       _iso8859_3_wctomb          10003670 f   libiconv:iconv.obj
 0001:000026d0       _iso8859_4_mbtowc          100036d0 f   libiconv:iconv.obj
 0001:00002700       _iso8859_4_wctomb          10003700 f   libiconv:iconv.obj
 0001:00002750       _iso8859_5_mbtowc          10003750 f   libiconv:iconv.obj
 0001:00002780       _iso8859_5_wctomb          10003780 f   libiconv:iconv.obj
 0001:000027d0       _iso8859_6_mbtowc          100037d0 f   libiconv:iconv.obj
 0001:00002810       _iso8859_6_wctomb          10003810 f   libiconv:iconv.obj
 0001:00002860       _iso8859_7_mbtowc          10003860 f   libiconv:iconv.obj
 0001:000028a0       _iso8859_7_wctomb          100038a0 f   libiconv:iconv.obj
 0001:00002920       _iso8859_8_mbtowc          10003920 f   libiconv:iconv.obj
 0001:00002960       _iso8859_8_wctomb          10003960 f   libiconv:iconv.obj
 0001:000029c0       _iso8859_9_mbtowc          100039c0 f   libiconv:iconv.obj
 0001:000029f0       _iso8859_9_wctomb          100039f0 f   libiconv:iconv.obj
 0001:00002a40       _iso8859_10_mbtowc         10003a40 f   libiconv:iconv.obj
 0001:00002a70       _iso8859_10_wctomb         10003a70 f   libiconv:iconv.obj
 0001:00002ab0       _iso8859_11_mbtowc         10003ab0 f   libiconv:iconv.obj
 0001:00002af0       _iso8859_11_wctomb         10003af0 f   libiconv:iconv.obj
 0001:00002b30       _iso8859_13_mbtowc         10003b30 f   libiconv:iconv.obj
 0001:00002b60       _iso8859_13_wctomb         10003b60 f   libiconv:iconv.obj
 0001:00002bb0       _iso8859_14_mbtowc         10003bb0 f   libiconv:iconv.obj
 0001:00002be0       _iso8859_14_wctomb         10003be0 f   libiconv:iconv.obj
 0001:00002c60       _iso8859_15_mbtowc         10003c60 f   libiconv:iconv.obj
 0001:00002ca0       _iso8859_15_wctomb         10003ca0 f   libiconv:iconv.obj
 0001:00002d00       _iso8859_16_mbtowc         10003d00 f   libiconv:iconv.obj
 0001:00002d30       _iso8859_16_wctomb         10003d30 f   libiconv:iconv.obj
 0001:00002d90       _koi8_r_mbtowc             10003d90 f   libiconv:iconv.obj
 0001:00002dc0       _koi8_r_wctomb             10003dc0 f   libiconv:iconv.obj
 0001:00002e40       _koi8_u_mbtowc             10003e40 f   libiconv:iconv.obj
 0001:00002e70       _koi8_u_wctomb             10003e70 f   libiconv:iconv.obj
 0001:00002f00       _koi8_ru_mbtowc            10003f00 f   libiconv:iconv.obj
 0001:00002f30       _koi8_ru_wctomb            10003f30 f   libiconv:iconv.obj
 0001:00002fc0       _cp1250_mbtowc             10003fc0 f   libiconv:iconv.obj
 0001:00003000       _cp1250_wctomb             10004000 f   libiconv:iconv.obj
 0001:00003080       _cp1251_mbtowc             10004080 f   libiconv:iconv.obj
 0001:000030c0       _cp1251_wctomb             100040c0 f   libiconv:iconv.obj
 0001:00003150       _cp1252_mbtowc             10004150 f   libiconv:iconv.obj
 0001:000031a0       _cp1252_wctomb             100041a0 f   libiconv:iconv.obj
 0001:00003230       _cp1253_mbtowc             10004230 f   libiconv:iconv.obj
 0001:00003270       _cp1253_wctomb             10004270 f   libiconv:iconv.obj
 0001:00003300       _cp1254_mbtowc             10004300 f   libiconv:iconv.obj
 0001:00003380       _cp1254_wctomb             10004380 f   libiconv:iconv.obj
 0001:00003430       _normal_flushwc            10004430 f   libiconv:iconv.obj
 0001:00003460       _cp1255_mbtowc             10004460 f   libiconv:iconv.obj
 0001:00003614       $LN46                      10004614     libiconv:iconv.obj
 0001:00003638       $LN41                      10004638     libiconv:iconv.obj
 0001:00003650       _cp1255_wctomb             10004650 f   libiconv:iconv.obj
 0001:00003800       _cp1256_mbtowc             10004800 f   libiconv:iconv.obj
 0001:00003830       _cp1256_wctomb             10004830 f   libiconv:iconv.obj
 0001:000038e0       _cp1257_mbtowc             100048e0 f   libiconv:iconv.obj
 0001:00003920       _cp1257_wctomb             10004920 f   libiconv:iconv.obj
 0001:000039a0       _cp1258_mbtowc             100049a0 f   libiconv:iconv.obj
 0001:00003b10       $LN39                      10004b10     libiconv:iconv.obj
 0001:00003b28       $LN33                      10004b28     libiconv:iconv.obj
 0001:00003b50       _cp1258_wctomb             10004b50 f   libiconv:iconv.obj
 0001:00003d10       _cp850_mbtowc              10004d10 f   libiconv:iconv.obj
 0001:00003d40       _cp850_wctomb              10004d40 f   libiconv:iconv.obj
 0001:00003dd0       _cp862_mbtowc              10004dd0 f   libiconv:iconv.obj
 0001:00003e00       _cp862_wctomb              10004e00 f   libiconv:iconv.obj
 0001:00003ef0       _cp866_mbtowc              10004ef0 f   libiconv:iconv.obj
 0001:00003f40       _cp866_wctomb              10004f40 f   libiconv:iconv.obj
 0001:00003fd0       _cp1131_mbtowc             10004fd0 f   libiconv:iconv.obj
 0001:00004000       _cp1131_wctomb             10005000 f   libiconv:iconv.obj
 0001:00004080       _mac_roman_mbtowc          10005080 f   libiconv:iconv.obj
 0001:000040c0       _mac_roman_wctomb          100050c0 f   libiconv:iconv.obj
 0001:000041a0       _mac_centraleurope_mbtowc  100051a0 f   libiconv:iconv.obj
 0001:000041d0       _mac_centraleurope_wctomb  100051d0 f   libiconv:iconv.obj
 0001:00004280       _mac_iceland_mbtowc        10005280 f   libiconv:iconv.obj
 0001:000042c0       _mac_iceland_wctomb        100052c0 f   libiconv:iconv.obj
 0001:00004380       _mac_croatian_mbtowc       10005380 f   libiconv:iconv.obj
 0001:000043c0       _mac_croatian_wctomb       100053c0 f   libiconv:iconv.obj
 0001:00004470       _mac_romania_mbtowc        10005470 f   libiconv:iconv.obj
 0001:000044b0       _mac_romania_wctomb        100054b0 f   libiconv:iconv.obj
 0001:00004560       _mac_cyrillic_mbtowc       10005560 f   libiconv:iconv.obj
 0001:00004590       _mac_cyrillic_wctomb       10005590 f   libiconv:iconv.obj
 0001:00004640       _mac_ukraine_mbtowc        10005640 f   libiconv:iconv.obj
 0001:00004670       _mac_ukraine_wctomb        10005670 f   libiconv:iconv.obj
 0001:00004720       _mac_greek_mbtowc          10005720 f   libiconv:iconv.obj
 0001:00004760       _mac_greek_wctomb          10005760 f   libiconv:iconv.obj
 0001:00004800       _mac_turkish_mbtowc        10005800 f   libiconv:iconv.obj
 0001:00004840       _mac_turkish_wctomb        10005840 f   libiconv:iconv.obj
 0001:00004900       _mac_hebrew_mbtowc         10005900 f   libiconv:iconv.obj
 0001:00004940       _mac_hebrew_wctomb         10005940 f   libiconv:iconv.obj
 0001:000049c0       _mac_arabic_mbtowc         100059c0 f   libiconv:iconv.obj
 0001:00004a00       _mac_arabic_wctomb         10005a00 f   libiconv:iconv.obj
 0001:00004a50       _mac_thai_mbtowc           10005a50 f   libiconv:iconv.obj
 0001:00004a90       _mac_thai_wctomb           10005a90 f   libiconv:iconv.obj
 0001:00004b20       _hp_roman8_mbtowc          10005b20 f   libiconv:iconv.obj
 0001:00004b60       _hp_roman8_wctomb          10005b60 f   libiconv:iconv.obj
 0001:00004bf0       _nextstep_mbtowc           10005bf0 f   libiconv:iconv.obj
 0001:00004c30       _nextstep_wctomb           10005c30 f   libiconv:iconv.obj
 0001:00004cb0       _armscii_8_mbtowc          10005cb0 f   libiconv:iconv.obj
 0001:00004cf0       _armscii_8_wctomb          10005cf0 f   libiconv:iconv.obj
 0001:00004d60       _georgian_academy_mbtowc   10005d60 f   libiconv:iconv.obj
 0001:00004db0       _georgian_academy_wctomb   10005db0 f   libiconv:iconv.obj
 0001:00004e50       _georgian_ps_mbtowc        10005e50 f   libiconv:iconv.obj
 0001:00004eb0       _georgian_ps_wctomb        10005eb0 f   libiconv:iconv.obj
 0001:00004f60       _koi8_t_mbtowc             10005f60 f   libiconv:iconv.obj
 0001:00004fa0       _koi8_t_wctomb             10005fa0 f   libiconv:iconv.obj
 0001:00005010       _pt154_mbtowc              10006010 f   libiconv:iconv.obj
 0001:00005060       _pt154_wctomb              10006060 f   libiconv:iconv.obj
 0001:000050d0       _rk1048_mbtowc             100060d0 f   libiconv:iconv.obj
 0001:00005110       _rk1048_wctomb             10006110 f   libiconv:iconv.obj
 0001:000051a0       _mulelao_mbtowc            100061a0 f   libiconv:iconv.obj
 0001:000051e0       _mulelao_wctomb            100061e0 f   libiconv:iconv.obj
 0001:00005230       _cp1133_mbtowc             10006230 f   libiconv:iconv.obj
 0001:00005290       _cp1133_wctomb             10006290 f   libiconv:iconv.obj
 0001:000052e0       _tis620_mbtowc             100062e0 f   libiconv:iconv.obj
 0001:00005330       _tis620_wctomb             10006330 f   libiconv:iconv.obj
 0001:00005370       _cp874_mbtowc              10006370 f   libiconv:iconv.obj
 0001:000053b0       _cp874_wctomb              100063b0 f   libiconv:iconv.obj
 0001:00005420       _viscii_mbtowc             10006420 f   libiconv:iconv.obj
 0001:00005470       _viscii_wctomb             10006470 f   libiconv:iconv.obj
 0001:000054e0       _tcvn_mbtowc               100064e0 f   libiconv:iconv.obj
 0001:00005654       $LN39                      10006654     libiconv:iconv.obj
 0001:0000566c       $LN34                      1000666c     libiconv:iconv.obj
 0001:00005690       _tcvn_wctomb               10006690 f   libiconv:iconv.obj
 0001:000057e0       _iso646_jp_mbtowc          100067e0 f   libiconv:iconv.obj
 0001:00005830       _iso646_jp_wctomb          10006830 f   libiconv:iconv.obj
 0001:00005880       _jisx0201_mbtowc           10006880 f   libiconv:iconv.obj
 0001:000058e0       _jisx0201_wctomb           100068e0 f   libiconv:iconv.obj
 0001:00005940       _jisx0208_mbtowc           10006940 f   libiconv:iconv.obj
 0001:000059d0       _jisx0208_wctomb           100069d0 f   libiconv:iconv.obj
 0001:00005b60       _jisx0212_mbtowc           10006b60 f   libiconv:iconv.obj
 0001:00005c40       _jisx0212_wctomb           10006c40 f   libiconv:iconv.obj
 0001:00005d80       _iso646_cn_mbtowc          10006d80 f   libiconv:iconv.obj
 0001:00005dd0       _iso646_cn_wctomb          10006dd0 f   libiconv:iconv.obj
 0001:00005e20       _gb2312_mbtowc             10006e20 f   libiconv:iconv.obj
 0001:00005ec0       _gb2312_wctomb             10006ec0 f   libiconv:iconv.obj
 0001:00006030       _isoir165ext_mbtowc        10007030 f   libiconv:iconv.obj
 0001:000060c0       _isoir165ext_wctomb        100070c0 f   libiconv:iconv.obj
 0001:000062b0       _isoir165_mbtowc           100072b0 f   libiconv:iconv.obj
 0001:00006360       _isoir165_wctomb           10007360 f   libiconv:iconv.obj
 0001:00006430       _gbkext1_mbtowc            10007430 f   libiconv:iconv.obj
 0001:000064a0       _gbkext2_mbtowc            100074a0 f   libiconv:iconv.obj
 0001:00006510       _gbkext_inv_wctomb         10007510 f   libiconv:iconv.obj
 0001:000066c0       _cp936ext_mbtowc           100076c0 f   libiconv:iconv.obj
 0001:00006760       _cp936ext_wctomb           10007760 f   libiconv:iconv.obj
 0001:000067c0       _gbk_mbtowc                100077c0 f   libiconv:iconv.obj
 0001:000068c0       _gbk_wctomb                100078c0 f   libiconv:iconv.obj
 0001:000069f0       _cns11643_1_mbtowc         100079f0 f   libiconv:iconv.obj
 0001:00006ae0       _cns11643_2_mbtowc         10007ae0 f   libiconv:iconv.obj
 0001:00006b40       _cns11643_3_mbtowc         10007b40 f   libiconv:iconv.obj
 0001:00006bd0       _cns11643_4_mbtowc         10007bd0 f   libiconv:iconv.obj
 0001:00006c60       _cns11643_5_mbtowc         10007c60 f   libiconv:iconv.obj
 0001:00006cd0       _cns11643_6_mbtowc         10007cd0 f   libiconv:iconv.obj
 0001:00006d40       _cns11643_7_mbtowc         10007d40 f   libiconv:iconv.obj
 0001:00006db0       _cns11643_15_mbtowc        10007db0 f   libiconv:iconv.obj
 0001:00006e20       _cns11643_inv_wctomb       10007e20 f   libiconv:iconv.obj
 0001:00007000       _big5_mbtowc               10008000 f   libiconv:iconv.obj
 0001:000070a0       _big5_wctomb               100080a0 f   libiconv:iconv.obj
 0001:00007250       _ksc5601_mbtowc            10008250 f   libiconv:iconv.obj
 0001:00007300       _ksc5601_wctomb            10008300 f   libiconv:iconv.obj
 0001:00007490       _johab_hangul_mbtowc       10008490 f   libiconv:iconv.obj
 0001:00007590       _johab_hangul_wctomb       10008590 f   libiconv:iconv.obj
 0001:00007650       _johab_hangul_decompose    10008650 f   libiconv:iconv.obj
 0001:00007720       _euc_jp_mbtowc             10008720 f   libiconv:iconv.obj
 0001:00007890       _euc_jp_wctomb             10008890 f   libiconv:iconv.obj
 0001:00007a50       _sjis_mbtowc               10008a50 f   libiconv:iconv.obj
 0001:00007bc0       _sjis_wctomb               10008bc0 f   libiconv:iconv.obj
 0001:00007d30       _cp932ext_mbtowc           10008d30 f   libiconv:iconv.obj
 0001:00007e00       _cp932ext_wctomb           10008e00 f   libiconv:iconv.obj
 0001:00008060       _cp932_mbtowc              10009060 f   libiconv:iconv.obj
 0001:000081b0       _cp932_wctomb              100091b0 f   libiconv:iconv.obj
 0001:00008400       _iso2022_jp_mbtowc         10009400 f   libiconv:iconv.obj
 0001:00008620       _iso2022_jp_wctomb         10009620 f   libiconv:iconv.obj
 0001:00008770       _iso2022_jp_reset          10009770 f   libiconv:iconv.obj
 0001:00008770       _iso2022_jp1_reset         10009770 f   libiconv:iconv.obj
 0001:000087a0       _iso2022_jp1_mbtowc        100097a0 f   libiconv:iconv.obj
 0001:00008a64       $LN92                      10009a64     libiconv:iconv.obj
 0001:00008a80       _iso2022_jp1_wctomb        10009a80 f   libiconv:iconv.obj
 0001:00008c40       _iso2022_jp2_mbtowc        10009c40 f   libiconv:iconv.obj
 0001:00009248       $LN221                     1000a248     libiconv:iconv.obj
 0001:00009270       _iso2022_jp2_wctomb        1000a270 f   libiconv:iconv.obj
 0001:00009860       $LN159                     1000a860     libiconv:iconv.obj
 0001:00009884       $LN131                     1000a884     libiconv:iconv.obj
 0001:00009904       $LN160                     1000a904     libiconv:iconv.obj
 0001:00009920       _iso2022_jp2_reset         1000a920 f   libiconv:iconv.obj
 0001:00009950       _euc_cn_mbtowc             1000a950 f   libiconv:iconv.obj
 0001:000099c0       _euc_cn_wctomb             1000a9c0 f   libiconv:iconv.obj
 0001:00009a30       _ces_gbk_mbtowc            1000aa30 f   libiconv:iconv.obj
 0001:00009a80       _ces_gbk_wctomb            1000aa80 f   libiconv:iconv.obj
 0001:00009b80       _cp936_mbtowc              1000ab80 f   libiconv:iconv.obj
 0001:00009c90       _cp936_wctomb              1000ac90 f   libiconv:iconv.obj
 0001:00009d60       _gb18030ext_mbtowc         1000ad60 f   libiconv:iconv.obj
 0001:0000a07c       $LN74                      1000b07c     libiconv:iconv.obj
 0001:0000a0a4       $LN71                      1000b0a4     libiconv:iconv.obj
 0001:0000a110       _gb18030ext_wctomb         1000b110 f   libiconv:iconv.obj
 0001:0000a4e0       _gb18030uni_mbtowc         1000b4e0 f   libiconv:iconv.obj
 0001:0000a5e0       _gb18030uni_wctomb         1000b5e0 f   libiconv:iconv.obj
 0001:0000a6d0       _gb18030_mbtowc            1000b6d0 f   libiconv:iconv.obj
 0001:0000a870       _gb18030_wctomb            1000b870 f   libiconv:iconv.obj
 0001:0000aa90       _iso2022_cn_mbtowc         1000ba90 f   libiconv:iconv.obj
 0001:0000ae10       _iso2022_cn_wctomb         1000be10 f   libiconv:iconv.obj
 0001:0000b040       _iso2022_cn_ext_reset      1000c040 f   libiconv:iconv.obj
 0001:0000b040       _iso2022_kr_reset          1000c040 f   libiconv:iconv.obj
 0001:0000b040       _iso2022_cn_reset          1000c040 f   libiconv:iconv.obj
 0001:0000b070       _iso2022_cn_ext_mbtowc     1000c070 f   libiconv:iconv.obj
 0001:0000b854       $LN214                     1000c854     libiconv:iconv.obj
 0001:0000b86c       $LN215                     1000c86c     libiconv:iconv.obj
 0001:0000b880       _iso2022_cn_ext_wctomb     1000c880 f   libiconv:iconv.obj
 0001:0000bdb0       _hz_mbtowc                 1000cdb0 f   libiconv:iconv.obj
 0001:0000bf20       _hz_wctomb                 1000cf20 f   libiconv:iconv.obj
 0001:0000c000       _hz_reset                  1000d000 f   libiconv:iconv.obj
 0001:0000c030       _euc_tw_mbtowc             1000d030 f   libiconv:iconv.obj
 0001:0000c1a8       $LN34                      1000d1a8     libiconv:iconv.obj
 0001:0000c1cc       $LN28                      1000d1cc     libiconv:iconv.obj
 0001:0000c1e0       _euc_tw_wctomb             1000d1e0 f   libiconv:iconv.obj
 0001:0000c280       _ces_big5_mbtowc           1000d280 f   libiconv:iconv.obj
 0001:0000c2d0       _ces_big5_wctomb           1000d2d0 f   libiconv:iconv.obj
 0001:0000c330       _cp950ext_mbtowc           1000d330 f   libiconv:iconv.obj
 0001:0000c390       _cp950ext_wctomb           1000d390 f   libiconv:iconv.obj
 0001:0000c540       _cp950_mbtowc              1000d540 f   libiconv:iconv.obj
 0001:0000c6c0       _cp950_wctomb              1000d6c0 f   libiconv:iconv.obj
 0001:0000c98c       $LN112                     1000d98c     libiconv:iconv.obj
 0001:0000c9a8       $LN104                     1000d9a8     libiconv:iconv.obj
 0001:0000ca90       _hkscs1999_mbtowc          1000da90 f   libiconv:iconv.obj
 0001:0000cba0       _hkscs1999_wctomb          1000dba0 f   libiconv:iconv.obj
 0001:0000ce00       _big5hkscs1999_mbtowc      1000de00 f   libiconv:iconv.obj
 0001:0000cf00       _big5hkscs1999_wctomb      1000df00 f   libiconv:iconv.obj
 0001:0000d060       _big5hkscs2004_reset       1000e060 f   libiconv:iconv.obj
 0001:0000d060       _big5hkscs2001_reset       1000e060 f   libiconv:iconv.obj
 0001:0000d060       _big5hkscs2008_reset       1000e060 f   libiconv:iconv.obj
 0001:0000d060       _big5hkscs1999_reset       1000e060 f   libiconv:iconv.obj
 0001:0000d090       _hkscs2001_mbtowc          1000e090 f   libiconv:iconv.obj
 0001:0000d110       _hkscs2001_wctomb          1000e110 f   libiconv:iconv.obj
 0001:0000d770       _big5hkscs2001_mbtowc      1000e770 f   libiconv:iconv.obj
 0001:0000d880       _big5hkscs2001_wctomb      1000e880 f   libiconv:iconv.obj
 0001:0000da00       _hkscs2004_mbtowc          1000ea00 f   libiconv:iconv.obj
 0001:0000dad0       _hkscs2004_wctomb          1000ead0 f   libiconv:iconv.obj
 0001:0000e180       _big5hkscs2004_mbtowc      1000f180 f   libiconv:iconv.obj
 0001:0000e2a0       _big5hkscs2004_wctomb      1000f2a0 f   libiconv:iconv.obj
 0001:0000e430       _hkscs2008_mbtowc          1000f430 f   libiconv:iconv.obj
 0001:0000e4b0       _hkscs2008_wctomb          1000f4b0 f   libiconv:iconv.obj
 0001:0000e9d0       _big5hkscs2008_mbtowc      1000f9d0 f   libiconv:iconv.obj
 0001:0000eb10       _big5hkscs2008_wctomb      1000fb10 f   libiconv:iconv.obj
 0001:0000ecc0       _euc_kr_mbtowc             1000fcc0 f   libiconv:iconv.obj
 0001:0000ed30       _euc_kr_wctomb             1000fd30 f   libiconv:iconv.obj
 0001:0000eda0       _uhc_1_mbtowc              1000fda0 f   libiconv:iconv.obj
 0001:0000ee50       _uhc_1_wctomb              1000fe50 f   libiconv:iconv.obj
 0001:0000ef50       _uhc_2_mbtowc              1000ff50 f   libiconv:iconv.obj
 0001:0000f000       _uhc_2_wctomb              10010000 f   libiconv:iconv.obj
 0001:0000f100       _cp949_mbtowc              10010100 f   libiconv:iconv.obj
 0001:0000f1e0       _cp949_wctomb              100101e0 f   libiconv:iconv.obj
 0001:0000f2e0       _johab_mbtowc              100102e0 f   libiconv:iconv.obj
 0001:0000f3c0       _johab_wctomb              100103c0 f   libiconv:iconv.obj
 0001:0000f4e0       _iso2022_kr_mbtowc         100104e0 f   libiconv:iconv.obj
 0001:0000f670       _iso2022_kr_wctomb         10010670 f   libiconv:iconv.obj
 0001:0000f770       _cp856_mbtowc              10010770 f   libiconv:iconv.obj
 0001:0000f7b0       _cp856_wctomb              100107b0 f   libiconv:iconv.obj
 0001:0000f820       _cp922_mbtowc              10010820 f   libiconv:iconv.obj
 0001:0000f890       _cp922_wctomb              10010890 f   libiconv:iconv.obj
 0001:0000f8e0       _cp1046_mbtowc             100108e0 f   libiconv:iconv.obj
 0001:0000f920       _cp1046_wctomb             10010920 f   libiconv:iconv.obj
 0001:0000f9c0       _cp1124_mbtowc             100109c0 f   libiconv:iconv.obj
 0001:0000f9f0       _cp1124_wctomb             100109f0 f   libiconv:iconv.obj
 0001:0000fa40       _cp1129_mbtowc             10010a40 f   libiconv:iconv.obj
 0001:0000fa70       _cp1129_wctomb             10010a70 f   libiconv:iconv.obj
 0001:0000fac0       _cp1161_mbtowc             10010ac0 f   libiconv:iconv.obj
 0001:0000fb00       _cp1161_wctomb             10010b00 f   libiconv:iconv.obj
 0001:0000fb60       _cp1162_mbtowc             10010b60 f   libiconv:iconv.obj
 0001:0000fba0       _cp1162_wctomb             10010ba0 f   libiconv:iconv.obj
 0001:0000fc20       _cp1163_mbtowc             10010c20 f   libiconv:iconv.obj
 0001:0000fc70       _cp1163_wctomb             10010c70 f   libiconv:iconv.obj
 0001:0000fcf0       _dec_kanji_mbtowc          10010cf0 f   libiconv:iconv.obj
 0001:0000fd60       _dec_kanji_wctomb          10010d60 f   libiconv:iconv.obj
 0001:0000fdd0       _dec_hanyu_mbtowc          10010dd0 f   libiconv:iconv.obj
 0001:0000fee0       _dec_hanyu_wctomb          10010ee0 f   libiconv:iconv.obj
 0001:0000ffb0       _cp437_mbtowc              10010fb0 f   libiconv:iconv.obj
 0001:0000ffe0       _cp437_wctomb              10010fe0 f   libiconv:iconv.obj
 0001:000100b0       _cp737_mbtowc              100110b0 f   libiconv:iconv.obj
 0001:000100e0       _cp737_wctomb              100110e0 f   libiconv:iconv.obj
 0001:00010180       _cp775_mbtowc              10011180 f   libiconv:iconv.obj
 0001:000101b0       _cp775_wctomb              100111b0 f   libiconv:iconv.obj
 0001:00010230       _cp852_mbtowc              10011230 f   libiconv:iconv.obj
 0001:00010260       _cp852_wctomb              10011260 f   libiconv:iconv.obj
 0001:000102c0       _cp853_mbtowc              100112c0 f   libiconv:iconv.obj
 0001:00010300       _cp853_wctomb              10011300 f   libiconv:iconv.obj
 0001:00010390       _cp855_mbtowc              10011390 f   libiconv:iconv.obj
 0001:000103c0       _cp855_wctomb              100113c0 f   libiconv:iconv.obj
 0001:00010430       _cp857_mbtowc              10011430 f   libiconv:iconv.obj
 0001:00010470       _cp857_wctomb              10011470 f   libiconv:iconv.obj
 0001:000104d0       _cp858_mbtowc              100114d0 f   libiconv:iconv.obj
 0001:00010520       _cp858_wctomb              10011520 f   libiconv:iconv.obj
 0001:000105b0       _cp860_mbtowc              100115b0 f   libiconv:iconv.obj
 0001:000105e0       _cp860_wctomb              100115e0 f   libiconv:iconv.obj
 0001:00010690       _cp861_mbtowc              10011690 f   libiconv:iconv.obj
 0001:000106c0       _cp861_wctomb              100116c0 f   libiconv:iconv.obj
 0001:00010790       _cp863_mbtowc              10011790 f   libiconv:iconv.obj
 0001:000107c0       _cp863_wctomb              100117c0 f   libiconv:iconv.obj
 0001:00010890       _cp864_mbtowc              10011890 f   libiconv:iconv.obj
 0001:000108f0       _cp864_wctomb              100118f0 f   libiconv:iconv.obj
 0001:000109f0       _cp865_mbtowc              100119f0 f   libiconv:iconv.obj
 0001:00010a20       _cp865_wctomb              10011a20 f   libiconv:iconv.obj
 0001:00010af0       _cp869_mbtowc              10011af0 f   libiconv:iconv.obj
 0001:00010b30       _cp869_wctomb              10011b30 f   libiconv:iconv.obj
 0001:00010ba0       _cp1125_mbtowc             10011ba0 f   libiconv:iconv.obj
 0001:00010bf0       _cp1125_wctomb             10011bf0 f   libiconv:iconv.obj
 0001:00010c80       _jisx0213_to_ucs4          10011c80 f   libiconv:iconv.obj
 0001:00010d20       _ucs4_to_jisx0213          10011d20 f   libiconv:iconv.obj
 0001:00010e00       _euc_jisx0213_mbtowc       10011e00 f   libiconv:iconv.obj
 0001:00010f20       _euc_jisx0213_wctomb       10011f20 f   libiconv:iconv.obj
 0001:000110e0       _euc_jisx0213_reset        100120e0 f   libiconv:iconv.obj
 0001:000110e0       _shift_jisx0213_reset      100120e0 f   libiconv:iconv.obj
 0001:00011110       _shift_jisx0213_mbtowc     10012110 f   libiconv:iconv.obj
 0001:00011270       _shift_jisx0213_wctomb     10012270 f   libiconv:iconv.obj
 0001:00011490       _iso2022_jp3_mbtowc        10012490 f   libiconv:iconv.obj
 0001:0001189c       $LN120                     1001289c     libiconv:iconv.obj
 0001:000118c0       _iso2022_jp3_flushwc       100128c0 f   libiconv:iconv.obj
 0001:000118f0       _iso2022_jp3_wctomb        100128f0 f   libiconv:iconv.obj
 0001:00011d00       _iso2022_jp3_reset         10012d00 f   libiconv:iconv.obj
 0001:00011db0       _big5_2003_mbtowc          10012db0 f   libiconv:iconv.obj
 0001:00012000       _big5_2003_wctomb          10013000 f   libiconv:iconv.obj
 0001:000126d4       $LN160                     100136d4     libiconv:iconv.obj
 0001:00012730       $LN153                     10013730     libiconv:iconv.obj
 0001:00012830       _tds565_mbtowc             10013830 f   libiconv:iconv.obj
 0001:00012870       _tds565_wctomb             10013870 f   libiconv:iconv.obj
 0001:000128d0       _atarist_mbtowc            100138d0 f   libiconv:iconv.obj
 0001:00012900       _atarist_wctomb            10013900 f   libiconv:iconv.obj
 0001:000129e0       _riscos1_mbtowc            100139e0 f   libiconv:iconv.obj
 0001:00012a20       _riscos1_wctomb            10013a20 f   libiconv:iconv.obj
 0001:00012af0       _unicode_transliterate     10013af0 f   libiconv:iconv.obj
 0001:00013120       _uc_to_mb_write_replacement 10014120 f   libiconv:iconv.obj
 0001:00013160       _mb_to_uc_write_replacement 10014160 f   libiconv:iconv.obj
 0001:000132e0       _unicode_loop_convert      100142e0 f   libiconv:iconv.obj
 0001:0001363c       $LN61                      1001463c     libiconv:iconv.obj
 0001:00013648       $LN50                      10014648     libiconv:iconv.obj
 0001:0001365c       $LN62                      1001465c     libiconv:iconv.obj
 0001:00013668       $LN51                      10014668     libiconv:iconv.obj
 0001:00013680       _unicode_loop_reset        10014680 f   libiconv:iconv.obj
 0001:000138b0       _aliases_hash              100148b0 f   libiconv:iconv.obj
 0001:00013964       $LN16                      10014964     libiconv:iconv.obj
 0001:00013a10       _aliases2_lookup           10014a10 f   libiconv:iconv.obj
 0001:00013f10       $$000000                   10014f10     LIBCMT:memmove.obj
 0001:00014160       LeadUpVec                  10015160     LIBCMT:memmove.obj
 0001:000141dc       UnwindUpVec                100151dc     LIBCMT:memmove.obj
 0001:00014248       TrailUpVec                 10015248     LIBCMT:memmove.obj
 0001:000142ec       LeadDownVec                100152ec     LIBCMT:memmove.obj
 0001:00014378       UnwindDownVec              10015378     LIBCMT:memmove.obj
 0001:000143e4       TrailDownVec               100153e4     LIBCMT:memmove.obj
 0001:0001464f       __onexit_nolock            1001564f f   LIBCMT:onexit.obj
 0001:00014aa4       ___DllMainCRTStartup       10015aa4 f   LIBCMT:dllcrt0.obj
 0001:00014cf0       $$000000                   10015cf0     LIBCMT:memcpy.obj
 0001:00014f40       LeadUpVec                  10015f40     LIBCMT:memcpy.obj
 0001:00014fbc       UnwindUpVec                10015fbc     LIBCMT:memcpy.obj
 0001:00015028       TrailUpVec                 10016028     LIBCMT:memcpy.obj
 0001:000150cc       LeadDownVec                100160cc     LIBCMT:memcpy.obj
 0001:00015158       UnwindDownVec              10016158     LIBCMT:memcpy.obj
 0001:000151c4       TrailDownVec               100161c4     LIBCMT:memcpy.obj
 0001:00015340       $$000000                   10016340     LIBCMT:strlen.obj
 0001:00016095       __initterm                 10017095 f   LIBCMT:crt0dat.obj
 0001:000160ff       _doexit                    100170ff f   LIBCMT:crt0dat.obj
 0001:00016491       _flsall                    10017491 f   LIBCMT:fflush.obj
 0001:00016759       _siglookup                 10017759 f   LIBCMT:winsig.obj
 0001:00016ca0       $$000000                   10017ca0     LIBCMT:sehprolg4.obj
 0001:00016eb0       $$000000                   10017eb0     LIBCMT:sqrt.obj
 0001:00017a41       ?CPtoLocaleName@@YAPB_WH@Z 10018a41 f   LIBCMT:mbctype.obj
 0001:00017a7b       ?getSystemCP@@YAHH@Z       10018a7b f   LIBCMT:mbctype.obj
 0001:00017ae9       ?setSBCS@@YAXPAUthreadmbcinfostruct@@@Z 10018ae9 f   LIBCMT:mbctype.obj
 0001:00017b48       ?setSBUpLow@@YAXPAUthreadmbcinfostruct@@@Z 10018b48 f   LIBCMT:mbctype.obj
 0001:00018823       _parse_cmdline             10019823 f   LIBCMT:stdargv.obj
 0001:00018fa0       $$000000                   10019fa0     LIBCMT:lowhelpr.obj
 0001:000190c0       $$000000                   1001a0c0     LIBCMT:strcmp.obj
 0001:000195de       __cftoe2_l                 1001a5de f   LIBCMT:cvt.obj
 0001:000197fd       __cftof2_l                 1001a7fd f   LIBCMT:cvt.obj
 0001:00019c33       __shift                    1001ac33 f   LIBCMT:cvt.obj
 0001:00019d00       $$000000                   1001ad00     LIBCMT:memset.obj
 0001:0001a060       $$000000                   1001b060     LIBCMT:ulldvrm.obj
 0001:0001ae10       $$000000                   1001be10     LIBCMT:exsup4.obj
 0001:0001aea0       __unwind_handler4          1001bea0 f   LIBCMT:exsup4.obj
 0001:0001b0c0       $$000000                   1001c0c0     LIBCMT:87disp.obj
 0001:0001b290       $$000000                   1001c290     LIBCMT:genexcep.obj
 0001:0001b2f0       $$000000                   1001c2f0     LIBCMT:common.obj
 0001:0001b962       ?__crtLCMapStringA_stat@@YAHPAUlocaleinfo_struct@@PB_WKPBDHPADHHH@Z 1001c962 f   LIBCMT:a_map.obj
 0001:0001bbac       ?__crtGetStringTypeA_stat@@YAHPAUlocaleinfo_struct@@KPBDHPAGHH@Z 1001cbac f   LIBCMT:a_str.obj
 0001:0001bde0       ?x_ismbbtype_l@@YAHPAUlocaleinfo_struct@@IHH@Z 1001cde0 f   LIBCMT:ismbbyte.obj
 0001:0001be50       $$000000                   1001ce50     LIBCMT:exsup.obj
 0001:0001be70       __unwind_handler           1001ce70 f   LIBCMT:exsup.obj
 0001:0001c010       $$000000                   1001d010     LIBCMT:strrchr.obj
 0001:0001c4a0       $$000000                   1001d4a0     LIBCMT:lldvrm.obj
 0001:0001c580       $$000000                   1001d580     LIBCMT:ullshr.obj
 0001:0001cb70       $$000000                   1001db70     LIBCMT:chkstk.obj
 0001:0001cba0       $$000000                   1001dba0     LIBCMT:alloca16.obj
 0001:0001df31       $LN333                     1001ef31     LIBCMT:strgtold.obj
 0001:0001e935       ___hw_cw_sse2              1001f935 f   LIBCMT:ieee87.obj
 0001:0001ece0       __hw_cw                    1001fce0 f   LIBCMT:ieee87.obj
 0001:0001f110       $$000000                   10020110     LIBCMT:llmul.obj
 0001:0001f370       ??__F?object_template@Iconv@?A0x81a5d862@@2V?$Persistent@VObjectTemplate@v8@@V?$NonCopyablePersistentTraits@VObjectTemplate@v8@@@2@@Nan@@A@@YAXXZ 10020370 f   binding.obj
 0002:00000108       _piecewise_construct$initializer$ 10021108     binding.obj
 0002:0000010c       ?object_template$initializer$@Iconv@?A0x81a5d862@@2P6AXXZA 1002110c     binding.obj
 0002:00000110       _allocator_arg$initializer$ 10021110     binding.obj
 0002:00000120       _pinit                     10021120     LIBCMT:onexit.obj
 0002:00000124       _pinit                     10021124     LIBCMT:cpu_disp.obj
 0002:00000128       _pinit                     10021128     LIBCMT:_file.obj
 0002:0000012c       _pinit                     1002112c     LIBCMT:mbctype.obj
 0002:00000138       _pterm                     10021138     LIBCMT:wsetloca.obj
 0002:0000013c       _pterm                     1002113c     LIBCMT:initcon.obj
 0002:00000140       _pterm                     10021140     LIBCMT:_file.obj
 0002:000001a0       __Win_errtab               100211a0     libcpmt:syserror.obj
 0002:000003f8       __Sys_errtab               100213f8     libcpmt:syserror.obj
 0002:00000fa8       ?ExceptionTemplate@?1??_CxxThrowException@@9@8@4UEHExceptionRecord@@B 10021fa8     LIBCMT:throw.obj
 0002:00000ff4       _GS_ExceptionPointers      10021ff4     LIBCMT:gs_report.obj
 0002:000010a0       _rterrs                    100220a0     LIBCMT:crt0msg.obj
 0002:00001b3c       __mb_locale_names          10022b3c     LIBCMT:mbctype.obj
 0002:00001ed8       __first_127char            10022ed8     LIBCMT:wsetloca.obj
 0002:00004374       One                        10025374     LIBCMT:87disp.obj
 0002:0000437c       XAMtoTagTab                1002537c     LIBCMT:87disp.obj
 0002:00004390       One                        10025390     LIBCMT:common.obj
 0002:000043a4       DblMax                     100253a4     LIBCMT:common.obj
 0002:000043ac       DblMin                     100253ac     LIBCMT:common.obj
 0002:000043b4       IeeeAdjO                   100253b4     LIBCMT:common.obj
 0002:000043bc       IeeeAdjU                   100253bc     LIBCMT:common.obj
 0002:000043c4       _infinity                  100253c4     LIBCMT:common.obj
 0002:000043cc       _zero                      100253cc     LIBCMT:common.obj
 0002:00004be8       _tokenTable                10025be8     LIBCMT:undname.obj
 0002:00004c20       _nameTable                 10025c20     LIBCMT:undname.obj
 0002:00004d60       _rttiTable                 10025d60     LIBCMT:undname.obj
 0002:000054a0       _rk1048_page00             100264a0     libiconv:iconv.obj
 0002:000054c0       _translit_page05           100264c0     libiconv:iconv.obj
 0002:000054d0       _koi8_u_page25             100264d0     libiconv:iconv.obj
 0002:00005578       _jamo_initial_index_inverse 10026578     libiconv:iconv.obj
 0002:0000558c       _mac_ukraine_page21        1002658c     libiconv:iconv.obj
 0002:000055a4       _hkscs2001_uni2indx_page227 100265a4     libiconv:iconv.obj
 0002:000055ac       _hkscs2001_uni2indx_page61 100265ac     libiconv:iconv.obj
 0002:000055b8       _hkscs2001_uni2indx_page53 100265b8     libiconv:iconv.obj
 0002:00005608       _cp850_2uni                10026608     libiconv:iconv.obj
 0002:00005708       _hkscs2004_uni2indx_page23b 10026708     libiconv:iconv.obj
 0002:00005710       _hkscs2008_uni2indx_page66 10026710     libiconv:iconv.obj
 0002:00005774       _cp936ext_2uni_pagea6      10026774     libiconv:iconv.obj
 0002:000057a0       _cp850_page25              100267a0     libiconv:iconv.obj
 0002:00005848       _nextstep_pagefb           10026848     libiconv:iconv.obj
 0002:00005850       _jisx0213_to_ucs_combining 10026850     libiconv:iconv.obj
 0002:000058b4       _hkscs2008_uni2indx_page258 100268b4     libiconv:iconv.obj
 0002:000058ec       _hkscs2001_uni2indx_page245 100268ec     libiconv:iconv.obj
 0002:000058f0       _hkscs2001_2uni_page8c     100268f0     libiconv:iconv.obj
 0002:000059e8       _atarist_page01            100269e8     libiconv:iconv.obj
 0002:00005a50       _cns11643_inv_uni2indx_page30 10026a50     libiconv:iconv.obj
 0002:0000763c       _isoir165ext_uni2indx_pageff 1002863c     libiconv:iconv.obj
 0002:00007650       _cp932ext_2uni_page87      10028650     libiconv:iconv.obj
 0002:00007708       _cp1253_2uni               10028708     libiconv:iconv.obj
 0002:00007808       _pt154_page20              10028808     libiconv:iconv.obj
 0002:00007820       _cp1254_page01             10028820     libiconv:iconv.obj
 0002:000078a0       _hkscs1999_2charset        100288a0     libiconv:iconv.obj
 0002:00009d54       _cp950ext_uni2indx_page58  1002ad54     libiconv:iconv.obj
 0002:00009d84       _iso8859_8_page20          1002ad84     libiconv:iconv.obj
 0002:00009d94       _hkscs2004_uni2indx_page29e 1002ad94     libiconv:iconv.obj
 0002:00009dc4       _hkscs2008_uni2indx_page27b 1002adc4     libiconv:iconv.obj
 0002:00009de0       _ksc5601_uni2indx_page4e   1002ade0     libiconv:iconv.obj
 0002:0000b248       _cp1251_2uni               1002c248     libiconv:iconv.obj
 0002:0000b348       _cp866_page00              1002c348     libiconv:iconv.obj
 0002:0000b360       _gbkext_inv_uni2indx_pagef9 1002c360     libiconv:iconv.obj
 0002:0000b3ac       _jamo_final_index_inverse  1002c3ac     libiconv:iconv.obj
 0002:0000b3c8       _cp874_2uni                1002c3c8     libiconv:iconv.obj
 0002:0000b4c8       _hkscs2008_uni2indx_page79 1002c4c8     libiconv:iconv.obj
 0002:0000b57c       _hkscs2008_uni2indx_page52 1002c57c     libiconv:iconv.obj
 0002:0000b590       _gb18030ext_2uni_pagefe    1002c590     libiconv:iconv.obj
 0002:0000b710       _cp862_page25              1002c710     libiconv:iconv.obj
 0002:0000b7b8       _hkscs2001_uni2indx_page256 1002c7b8     libiconv:iconv.obj
 0002:0000b7e0       _hkscs2001_uni2indx_page2a1 1002c7e0     libiconv:iconv.obj
 0002:0000b850       _cp1124_page00             1002c850     libiconv:iconv.obj
 0002:0000b860       _mac_thai_2uni             1002c860     libiconv:iconv.obj
 0002:0000b960       _xbase64_tab               1002c960     libiconv:iconv.obj
 0002:0000b970       _hkscs2001_uni2indx_page57 1002c970     libiconv:iconv.obj
 0002:0000b9e8       _georgian_academy_page20   1002c9e8     libiconv:iconv.obj
 0002:0000ba18       _hkscs1999_uni2indx_page04 1002ca18     libiconv:iconv.obj
 0002:0000ba30       _atarist_2uni              1002ca30     libiconv:iconv.obj
 0002:0000bb30       _cp853_page01              1002cb30     libiconv:iconv.obj
 0002:0000bba8       _hkscs2004_uni2indx_page290 1002cba8     libiconv:iconv.obj
 0002:0000bbc8       _hkscs2004_uni2indx_page66 1002cbc8     libiconv:iconv.obj
 0002:0000bc24       _hkscs2008_uni2indx_page26e 1002cc24     libiconv:iconv.obj
 0002:0000bc48       _koi8_r_page04             1002cc48     libiconv:iconv.obj
 0002:0000bca0       _hkscs2001_uni2indx_page88 1002cca0     libiconv:iconv.obj
 0002:0000bcc8       _isoir165ext_uni2indx_page94 1002ccc8     libiconv:iconv.obj
 0002:0000bf04       _hkscs2001_uni2indx_page9f 1002cf04     libiconv:iconv.obj
 0002:0000bf30       _jisx0212_uni2indx_page4e  1002cf30     libiconv:iconv.obj
 0002:0000d39c       _hkscs2008_uni2indx_page8b 1002e39c     libiconv:iconv.obj
 0002:0000d3c0       _cns11643_1_2uni_page42    1002e3c0     libiconv:iconv.obj
 0002:0000d404       _hkscs2001_uni2indx_page23c 1002e404     libiconv:iconv.obj
 0002:0000d420       _cp1254_2uni_1             1002e420     libiconv:iconv.obj
 0002:0000d460       _mac_croatian_2uni         1002e460     libiconv:iconv.obj
 0002:0000d560       _jisx0208_2charset         1002e560     libiconv:iconv.obj
 0002:00010b20       _viet_comp_table           10031b20     libiconv:iconv.obj
 0002:00010b48       _cp850_page00              10031b48     libiconv:iconv.obj
 0002:00010ba8       _hkscs2004_uni2indx_page272 10031ba8     libiconv:iconv.obj
 0002:00010c28       _stringpool2_contents      10031c28     libiconv:iconv.obj
 0002:00010ea0       _cp853_page02              10031ea0     libiconv:iconv.obj
 0002:00010ea8       _tcvn_page00               10031ea8     libiconv:iconv.obj
 0002:00010fc0       _cp865_page25              10031fc0     libiconv:iconv.obj
 0002:00011068       _mac_roman_page02          10032068     libiconv:iconv.obj
 0002:00011088       _cp1131_page00             10032088     libiconv:iconv.obj
 0002:000110a0       _johab_hangul_page31       100320a0     libiconv:iconv.obj
 0002:00011108       _cp863_page23              10032108     libiconv:iconv.obj
 0002:00011120       _gb2312_uni2indx_page00    10032120     libiconv:iconv.obj
 0002:00011238       _mac_turkish_page22        10032238     libiconv:iconv.obj
 0002:000112a0       _hkscs2001_uni2indx_page91 100322a0     libiconv:iconv.obj
 0002:00011360       _hkscs1999_uni2indx_page200 10032360     libiconv:iconv.obj
 0002:000137dc       _cp1257_page02             100347dc     libiconv:iconv.obj
 0002:00013800       _euc_jisx0213_comp_table_data 10034800     libiconv:iconv.obj
 0002:00013864       _hkscs2008_uni2indx_page289 10034864     libiconv:iconv.obj
 0002:00013868       _koi8_r_page00             10034868     libiconv:iconv.obj
 0002:000138c0       _jisx0212_2uni_page22      100348c0     libiconv:iconv.obj
 0002:00013964       _cp936ext_page02           10034964     libiconv:iconv.obj
 0002:00013994       _gbkext_inv_uni2indx_page02 10034994     libiconv:iconv.obj
 0002:000139cc       _hkscs2008_uni2indx_page46 100349cc     libiconv:iconv.obj
 0002:000139f8       _cp855_page25              100349f8     libiconv:iconv.obj
 0002:00013aa0       _iso8859_13_page20         10034aa0     libiconv:iconv.obj
 0002:00013aa8       _mac_cyrillic_2uni         10034aa8     libiconv:iconv.obj
 0002:00013ba8       _nextstep_page01           10034ba8     libiconv:iconv.obj
 0002:00013c10       _iso8859_3_page01          10034c10     libiconv:iconv.obj
 0002:00013c88       _cp1133_2uni_2             10034c88     libiconv:iconv.obj
 0002:00013ca8       _mac_thai_page00           10034ca8     libiconv:iconv.obj
 0002:00013cc8       _cns11643_inv_uni2indx_page24 10034cc8     libiconv:iconv.obj
 0002:00013d5c       _hkscs2004_uni2indx_page21a 10034d5c     libiconv:iconv.obj
 0002:00013d78       _mac_croatian_page00       10034d78     libiconv:iconv.obj
 0002:00013e70       _hkscs2001_uni2indx_page5a 10034e70     libiconv:iconv.obj
 0002:00013fe4       _mac_roman_pagefb          10034fe4     libiconv:iconv.obj
 0002:00013fec       _mac_greek_page22          10034fec     libiconv:iconv.obj
 0002:0001400c       _hkscs2008_uni2indx_page260 1003500c     libiconv:iconv.obj
 0002:00014018       _cp862_page00              10035018     libiconv:iconv.obj
 0002:00014078       _mac_hebrew_page05         10035078     libiconv:iconv.obj
 0002:000140b8       _cp1253_page03             100350b8     libiconv:iconv.obj
 0002:00014108       _cp1251_page20             10035108     libiconv:iconv.obj
 0002:00014138       _gbkext_inv_uni2indx_page4e 10035138     libiconv:iconv.obj
 0002:000155a4       _cp932ext_uni2indx_pageff  100365a4     libiconv:iconv.obj
 0002:000155e0       _cns11643_inv_uni2indx_page20 100365e0     libiconv:iconv.obj
 0002:00015690       _cp950ext_uni2indx_page60  10036690     libiconv:iconv.obj
 0002:000156a8       _uhc_2_2charset_main       100366a8     libiconv:iconv.obj
 0002:0001570c       _cp1250_page20             1003670c     libiconv:iconv.obj
 0002:0001573c       _hkscs2001_uni2indx_page287 1003673c     libiconv:iconv.obj
 0002:00015740       _hkscs2004_uni2indx_page4c 10036740     libiconv:iconv.obj
 0002:000157a4       _gb18030ext_2uni_pagea9    100367a4     libiconv:iconv.obj
 0002:000157c0       _cp1255_page05             100367c0     libiconv:iconv.obj
 0002:00015808       _cns11643_4b_2uni_upages   10036808     libiconv:iconv.obj
 0002:00015be8       _mac_roman_page22          10036be8     libiconv:iconv.obj
 0002:00015c50       _hkscs2001_uni2indx_page220 10036c50     libiconv:iconv.obj
 0002:00015c70       _isoir165ext_uni2indx_page1e 10036c70     libiconv:iconv.obj
 0002:00015ce0       _gb2312_2charset           10036ce0     libiconv:iconv.obj
 0002:0001970c       _cp1163_page20             1003a70c     libiconv:iconv.obj
 0002:00019714       _hkscs2001_uni2indx_page42 1003a714     libiconv:iconv.obj
 0002:00019740       _iso8859_8_page00          1003a740     libiconv:iconv.obj
 0002:00019798       _tcvn_page1e               1003a798     libiconv:iconv.obj
 0002:000197f8       _viscii_2uni_2             1003a7f8     libiconv:iconv.obj
 0002:000198f8       _cp1256_page20             1003a8f8     libiconv:iconv.obj
 0002:00019930       _cp1129_page00             1003a930     libiconv:iconv.obj
 0002:00019a40       _jamo_final_index          1003aa40     libiconv:iconv.obj
 0002:00019a60       _uhc_1_2uni_page81         1003aa60     libiconv:iconv.obj
 0002:0001b0a0       _cp1250_page00             1003c0a0     libiconv:iconv.obj
 0002:0001b180       _cp1046_page06             1003c180     libiconv:iconv.obj
 0002:0001b1e8       _uhc_1_2uni_main_page81    1003c1e8     libiconv:iconv.obj
 0002:0001b268       _mac_greek_2uni            1003c268     libiconv:iconv.obj
 0002:0001b368       _cp922_page01              1003c368     libiconv:iconv.obj
 0002:0001b388       _ksc5601_uni2indx_page30   1003c388     libiconv:iconv.obj
 0002:0001b480       _mac_centraleurope_2uni    1003c480     libiconv:iconv.obj
 0002:0001b580       _hkscs2008_uni2indx_page21d 1003c580     libiconv:iconv.obj
 0002:0001b598       _cp861_page22              1003c598     libiconv:iconv.obj
 0002:0001b5e8       _cp860_2uni                1003c5e8     libiconv:iconv.obj
 0002:0001b6e8       _cp1258_2uni               1003c6e8     libiconv:iconv.obj
 0002:0001b7e8       _hkscs2004_uni2indx_page270 1003c7e8     libiconv:iconv.obj
 0002:0001b820       _cp1258_page01             1003c820     libiconv:iconv.obj
 0002:0001b888       _cp855_page00              1003c888     libiconv:iconv.obj
 0002:0001b8a8       _hkscs2001_uni2indx_page26d 1003c8a8     libiconv:iconv.obj
 0002:0001b8c8       _cp857_page00              1003c8c8     libiconv:iconv.obj
 0002:0001b928       _jisx0208_2uni_page21      1003c928     libiconv:iconv.obj
 0002:0001be8c       _hkscs2008_uni2indx_page34 1003ce8c     libiconv:iconv.obj
 0002:0001bec8       _koi8_r_2uni               1003cec8     libiconv:iconv.obj
 0002:0001bfc8       _iso8859_4_page02          1003cfc8     libiconv:iconv.obj
 0002:0001bfe8       _iso8859_2_2uni            1003cfe8     libiconv:iconv.obj
 0002:0001c0a8       _gb18030ext_page4d         1003d0a8     libiconv:iconv.obj
 0002:0001c0c8       _cp865_page22              1003d0c8     libiconv:iconv.obj
 0002:0001c118       _hkscs2004_uni2indx_page23e 1003d118     libiconv:iconv.obj
 0002:0001c1d4       _cp950ext_uni2indx_page7c  1003d1d4     libiconv:iconv.obj
 0002:0001c200       _gb18030ext_page4c         1003d200     libiconv:iconv.obj
 0002:0001c270       _cp864_page00_1            1003d270     libiconv:iconv.obj
 0002:0001c2c8       _tcvn_comb_table           1003d2c8     libiconv:iconv.obj
 0002:0001c2d0       _cp1254_page02             1003d2d0     libiconv:iconv.obj
 0002:0001c2f0       _hkscs1999_2uni_pagec6     1003d2f0     libiconv:iconv.obj
 0002:0001c6a0       _cp932ext_uni2indx_page5b  1003d6a0     libiconv:iconv.obj
 0002:0001c758       _iso8859_14_page00         1003d758     libiconv:iconv.obj
 0002:0001c7b8       _cns11643_3_2uni_upages    1003d7b8     libiconv:iconv.obj
 0002:0001c9d8       _hkscs2004_uni2indx_page286 1003d9d8     libiconv:iconv.obj
 0002:0001ca08       _georgian_ps_page00        1003da08     libiconv:iconv.obj
 0002:0001ca28       _cp1124_2uni               1003da28     libiconv:iconv.obj
 0002:0001cae8       _cp936ext_pagefe           1003dae8     libiconv:iconv.obj
 0002:0001cb18       _hkscs2001_uni2indx_page26b 1003db18     libiconv:iconv.obj
 0002:0001cb20       _cns11643_4a_2uni_page21   1003db20     libiconv:iconv.obj
 0002:0001e1e4       _hkscs1999_uni2indx_pageff 1003f1e4     libiconv:iconv.obj
 0002:0001e220       _cp857_2uni                1003f220     libiconv:iconv.obj
 0002:0001e320       _hkscs2004_uni2indx_page3b 1003f320     libiconv:iconv.obj
 0002:0001e348       _hkscs2004_uni2indx_page36 1003f348     libiconv:iconv.obj
 0002:0001e428       _hkscs2004_uni2indx_page8a 1003f428     libiconv:iconv.obj
 0002:0001e468       _iso8859_7_2uni            1003f468     libiconv:iconv.obj
 0002:0001e528       _gb2312_uni2indx_page30    1003f528     libiconv:iconv.obj
 0002:0001e5b4       _jamo_medial_index_inverse 1003f5b4     libiconv:iconv.obj
 0002:0001e5cc       _georgian_academy_page02   1003f5cc     libiconv:iconv.obj
 0002:0001e5ec       _gb2312_uni2indx_pageff    1003f5ec     libiconv:iconv.obj
 0002:0001e628       _isoir165ext_uni2indx_page7e 1003f628     libiconv:iconv.obj
 0002:0001eb5c       _hkscs1999_uni2indx_page21 1003fb5c     libiconv:iconv.obj
 0002:0001eb98       _translit_page21           1003fb98     libiconv:iconv.obj
 0002:0001ed48       _cns11643_inv_uni2indx_pagefe 1003fd48     libiconv:iconv.obj
 0002:0001edc4       _hkscs2004_uni2indx_page227 1003fdc4     libiconv:iconv.obj
 0002:0001edec       _big5_uni2indx_pagefa      1003fdec     libiconv:iconv.obj
 0002:0001edf0       _isoir165ext_uni2indx_page9e 1003fdf0     libiconv:iconv.obj
 0002:0001ee54       _hkscs2008_uni2indx_page90 1003fe54     libiconv:iconv.obj
 0002:0001ee68       _translit_page2f8          1003fe68     libiconv:iconv.obj
 0002:0001f2a8       _isoir165ext_2uni_page2b   100402a8     libiconv:iconv.obj
 0002:0001f654       _jisx0208_uni2indx_pageff  10040654     libiconv:iconv.obj
 0002:0001f690       _cp737_page25              10040690     libiconv:iconv.obj
 0002:0001f738       _gbkext_inv_uni2indx_page32 10040738     libiconv:iconv.obj
 0002:0001f7b0       _mac_cyrillic_page20       100407b0     libiconv:iconv.obj
 0002:0001f7c8       _mac_centraleurope_page20  100407c8     libiconv:iconv.obj
 0002:0001f7f8       _big5_2uni_pagea1          100407f8     libiconv:iconv.obj
 0002:000227d0       _sysdep_aliases            100437d0     libiconv:iconv.obj
 0002:00022a50       _cp1131_page04             10043a50     libiconv:iconv.obj
 0002:00022ae8       _cns11643_inv_uni2indx_page00 10043ae8     libiconv:iconv.obj
 0002:00022b28       _cp869_page25              10043b28     libiconv:iconv.obj
 0002:00022bd0       _cp1255_decomp_table       10043bd0     libiconv:iconv.obj
 0002:00022ce0       _big5_2charset             10043ce0     libiconv:iconv.obj
 0002:000297f0       ?asso_values@?1??aliases_hash@@9@9 1004a7f0     libiconv:iconv.obj
 0002:000298f0       _iso8859_6_2uni            1004a8f0     libiconv:iconv.obj
 0002:000299b0       _hkscs2001_uni2indx_page25c 1004a9b0     libiconv:iconv.obj
 0002:00029a00       _cp1258_page00             1004aa00     libiconv:iconv.obj
 0002:00029a58       _koi8_ru_page04            1004aa58     libiconv:iconv.obj
 0002:00029af0       _translit_page0e           1004aaf0     libiconv:iconv.obj
 0002:00029b50       _cp869_page20              1004ab50     libiconv:iconv.obj
 0002:00029b60       _cp932ext_uni2indx_page7d  1004ab60     libiconv:iconv.obj
 0002:00029c0c       _hkscs2004_uni2indx_page7d 1004ac0c     libiconv:iconv.obj
 0002:00029c34       _hkscs2008_uni2indx_page224 1004ac34     libiconv:iconv.obj
 0002:00029c68       _gb18030uni_ranges         1004ac68     libiconv:iconv.obj
 0002:00029e04       _tcvn_page03               1004ae04     libiconv:iconv.obj
 0002:00029e2c       _ksc5601_uni2indx_pageff   1004ae2c     libiconv:iconv.obj
 0002:00029e68       _viscii_page00             1004ae68     libiconv:iconv.obj
 0002:00029f60       _cp1257_page20             1004af60     libiconv:iconv.obj
 0002:00029f90       _gb2312_2uni_page30        1004af90     libiconv:iconv.obj
 0002:0002d470       _gb18030ext_page2f         1004e470     libiconv:iconv.obj
 0002:0002d490       _georgian_ps_page02        1004e490     libiconv:iconv.obj
 0002:0002d4b0       _iso8859_5_2uni            1004e4b0     libiconv:iconv.obj
 0002:0002d570       _translit_page2f           1004e570     libiconv:iconv.obj
 0002:0002d720       _ksc5601_uni2indx_pageac   1004e720     libiconv:iconv.obj
 0002:0002e208       _isoir165ext_2uni_page7a   1004f208     libiconv:iconv.obj
 0002:0002e5b4       _cp950ext_uni2indx_page88  1004f5b4     libiconv:iconv.obj
 0002:0002e5e8       _mac_centraleurope_page00  1004f5e8     libiconv:iconv.obj
 0002:0002e6c8       _cp1133_2uni_1             1004f6c8     libiconv:iconv.obj
 0002:0002e748       _mac_iceland_2uni          1004f748     libiconv:iconv.obj
 0002:0002e848       _mac_hebrew_pagefb         1004f848     libiconv:iconv.obj
 0002:0002e880       _translit_page30           1004f880     libiconv:iconv.obj
 0002:0002ea70       _cp860_page22              1004fa70     libiconv:iconv.obj
 0002:0002eac0       _cns11643_6_2uni_page21    1004fac0     libiconv:iconv.obj
 0002:00031ca8       _cp1251_page04             10052ca8     libiconv:iconv.obj
 0002:00031d40       _iso8859_7_page00          10052d40     libiconv:iconv.obj
 0002:00031d60       _cp1161_page00             10052d60     libiconv:iconv.obj
 0002:00031d70       _cp932ext_2charset         10052d70     libiconv:iconv.obj
 0002:00032104       _cp936ext_page01           10053104     libiconv:iconv.obj
 0002:00032124       _hkscs2001_uni2indx_page271 10053124     libiconv:iconv.obj
 0002:00032128       _hkscs1999_uni2indx_page294 10053128     libiconv:iconv.obj
 0002:000321a8       _ksc5601_2uni_page21       100531a8     libiconv:iconv.obj
 0002:00032a60       _gb2312_uni2indx_page20    10053a60     libiconv:iconv.obj
 0002:00032bf4       _mac_thai_page20           10053bf4     libiconv:iconv.obj
 0002:00032c14       _hkscs1999_uni2indx_page1e 10053c14     libiconv:iconv.obj
 0002:00032c48       _cp932ext_uni2indx_page90  10053c48     libiconv:iconv.obj
 0002:00033000       _cp932ext_uni2indx_page5f  10054000     libiconv:iconv.obj
 0002:00033728       _cp866_page25              10054728     libiconv:iconv.obj
 0002:000337d0       _koi8_u_page00             100547d0     libiconv:iconv.obj
 0002:00033828       _cns11643_inv_2charset     10054828     libiconv:iconv.obj
 0002:0005c1e0       _iso8859_15_page01         1007d1e0     libiconv:iconv.obj
 0002:0005c210       _cp853_2uni                1007d210     libiconv:iconv.obj
 0002:0005c310       _mac_thai_pagef8           1007d310     libiconv:iconv.obj
 0002:0005c330       _jisx0213_from_ucs_level2_2indx 1007d330     libiconv:iconv.obj
 0002:0005ed90       _gb18030_pua2charset       1007fd90     libiconv:iconv.obj
 0002:0005ee50       _hkscs2004_uni2indx_page28b 1007fe50     libiconv:iconv.obj
 0002:0005ee80       _cp1253_page20             1007fe80     libiconv:iconv.obj
 0002:0005eeb0       _iso8859_13_2uni           1007feb0     libiconv:iconv.obj
 0002:0005ef70       _cp856_page05              1007ff70     libiconv:iconv.obj
 0002:0005ef90       _cp1256_2uni               1007ff90     libiconv:iconv.obj
 0002:0005f090       _translit_pagefe           10080090     libiconv:iconv.obj
 0002:0005f0e0       _translit_page0f           100800e0     libiconv:iconv.obj
 0002:0005f100       _cp861_page25              10080100     libiconv:iconv.obj
 0002:0005f1a8       _mulelao_2uni              100801a8     libiconv:iconv.obj
 0002:0005f268       _gb18030ext_page46         10080268     libiconv:iconv.obj
 0002:0005f2a8       _cp950ext_2uni_pagef9      100802a8     libiconv:iconv.obj
 0002:0005f2fc       _cp437_page03              100802fc     libiconv:iconv.obj
 0002:0005f334       _hkscs2008_uni2indx_page54 10080334     libiconv:iconv.obj
 0002:0005f348       _ksc5601_uni2indx_page00   10080348     libiconv:iconv.obj
 0002:0005f460       _cns11643_2_2uni_page21    10080460     libiconv:iconv.obj
 0002:00063024       _hkscs2008_uni2indx_page62 10084024     libiconv:iconv.obj
 0002:00063058       _cp869_2uni                10084058     libiconv:iconv.obj
 0002:00063158       _iso8859_14_2uni           10084158     libiconv:iconv.obj
 0002:00063218       _hkscs2001_uni2indx_page85 10084218     libiconv:iconv.obj
 0002:0006325c       _hkscs2004_uni2indx_page289 1008425c     libiconv:iconv.obj
 0002:00063278       _gb18030ext_page2e         10084278     libiconv:iconv.obj
 0002:00063318       _mac_ukraine_page04        10084318     libiconv:iconv.obj
 0002:000633b0       _cp1131_2uni               100843b0     libiconv:iconv.obj
 0002:000634b0       _hp_roman8_2uni            100844b0     libiconv:iconv.obj
 0002:00063570       _gbkext_inv_uni2indx_page25 10084570     libiconv:iconv.obj
 0002:000635b4       _atarist_page05            100845b4     libiconv:iconv.obj
 0002:000635d4       _hkscs2004_uni2indx_page221 100845d4     libiconv:iconv.obj
 0002:00063608       _cp865_2uni                10084608     libiconv:iconv.obj
 0002:00063708       _hkscs2008_uni2indx_page49 10084708     libiconv:iconv.obj
 0002:00063718       _hkscs2004_uni2indx_page242 10084718     libiconv:iconv.obj
 0002:00063748       _mac_arabic_page00         10084748     libiconv:iconv.obj
 0002:000637a8       _mac_roman_page01          100847a8     libiconv:iconv.obj
 0002:00063810       _tds565_2uni               10084810     libiconv:iconv.obj
 0002:00063890       _cns11643_4b_2uni_page40   10084890     libiconv:iconv.obj
 0002:00065ad0       _hkscs2008_uni2indx_page57 10086ad0     libiconv:iconv.obj
 0002:00065b38       _hkscs2004_uni2indx_page298 10086b38     libiconv:iconv.obj
 0002:00065b8c       _hkscs2008_uni2indx_page9f 10086b8c     libiconv:iconv.obj
 0002:00065bc0       _cp855_2uni                10086bc0     libiconv:iconv.obj
 0002:00065cc0       _hkscs2008_uni2indx_page40 10086cc0     libiconv:iconv.obj
 0002:00065d24       _hkscs2001_uni2indx_page241 10086d24     libiconv:iconv.obj
 0002:00065d38       _tds565_page00             10086d38     libiconv:iconv.obj
 0002:00065d78       _translit_page20_3         10086d78     libiconv:iconv.obj
 0002:00065d88       _cp856_2uni                10086d88     libiconv:iconv.obj
 0002:00065e88       _translit_pagefb           10086e88     libiconv:iconv.obj
 0002:00065f28       _hkscs2004_uni2indx_page25a 10086f28     libiconv:iconv.obj
 0002:00065f40       _hkscs2001_uni2indx_page214 10086f40     libiconv:iconv.obj
 0002:00065f50       _gb18030ext_page43         10086f50     libiconv:iconv.obj
 0002:00065fc0       _jisx0212_2uni_page26      10086fc0     libiconv:iconv.obj
 0002:00066138       _translit_page02_1         10087138     libiconv:iconv.obj
 0002:00066188       _jisx0212_2uni_page30      10087188     libiconv:iconv.obj
 0002:00068edc       _cp950ext_uni2indx_page92  10089edc     libiconv:iconv.obj
 0002:00068f0c       _hkscs2004_uni2indx_page4a 10089f0c     libiconv:iconv.obj
 0002:00068f38       _georgian_ps_2uni_1        10089f38     libiconv:iconv.obj
 0002:00068f78       _isoir165ext_uni2indx_page30 10089f78     libiconv:iconv.obj
 0002:00068f88       _iso8859_16_2uni           10089f88     libiconv:iconv.obj
 0002:00069048       _mac_romania_2uni          1008a048     libiconv:iconv.obj
 0002:00069148       _mac_iceland_page01        1008a148     libiconv:iconv.obj
 0002:000691b0       _hkscs2001_uni2indx_page82 1008a1b0     libiconv:iconv.obj
 0002:000691f0       _ksc5601_2charset          1008a1f0     libiconv:iconv.obj
 0002:0006d238       _cp437_page00              1008e238     libiconv:iconv.obj
 0002:0006d298       _cp932ext_uni2indx_page30  1008e298     libiconv:iconv.obj
 0002:0006d2a0       _riscos1_page20            1008e2a0     libiconv:iconv.obj
 0002:0006d2d0       _cp932ext_uni2indx_page88  1008e2d0     libiconv:iconv.obj
 0002:0006d484       _hkscs2004_uni2indx_page2a3 1008e484     libiconv:iconv.obj
 0002:0006d49c       _hkscs2004_uni2indx_page34 1008e49c     libiconv:iconv.obj
 0002:0006d4b0       _ksc5601_2uni_page30       1008e4b0     libiconv:iconv.obj
 0002:0006e70c       _hkscs2001_uni2indx_page8b 1008f70c     libiconv:iconv.obj
 0002:0006e730       _uhc_2_2charset            1008f730     libiconv:iconv.obj
 0002:0006f368       _iso8859_8_page05          10090368     libiconv:iconv.obj
 0002:0006f388       _gb18030ext_page49         10090388     libiconv:iconv.obj
 0002:0006f478       _cp863_page22              10090478     libiconv:iconv.obj
 0002:0006f4c8       _koi8_ru_page23            100904c8     libiconv:iconv.obj
 0002:0006f4d0       _cns11643_6_2uni_upages    100904d0     libiconv:iconv.obj
 0002:0006f800       _iso8859_9_2uni            10090800     libiconv:iconv.obj
 0002:0006f860       _mac_ukraine_page00        10090860     libiconv:iconv.obj
 0002:0006f880       _mac_iceland_page20        10090880     libiconv:iconv.obj
 0002:0006f8b8       _cp1133_page00             100908b8     libiconv:iconv.obj
 0002:0006f8c8       _cp1257_page00             100908c8     libiconv:iconv.obj
 0002:0006f9a8       _isoir165ext_uni2indx_page00 100909a8     libiconv:iconv.obj
 0002:0006fa28       _hkscs2008_uni2indx_page92 10090a28     libiconv:iconv.obj
 0002:0006fa30       _riscos1_2uni              10090a30     libiconv:iconv.obj
 0002:0006fa70       _koi8_ru_page25            10090a70     libiconv:iconv.obj
 0002:0006fb18       _cp437_2uni                10090b18     libiconv:iconv.obj
 0002:0006fc18       _cp864_page00              10090c18     libiconv:iconv.obj
 0002:0006fc20       _viet_comp_table_data      10090c20     libiconv:iconv.obj
 0002:0006ff48       _hkscs2001_uni2indx_page289 10090f48     libiconv:iconv.obj
 0002:0006ffc4       _cp437_page23              10090fc4     libiconv:iconv.obj
 0002:0006ffdc       _hkscs2001_uni2indx_page40 10090fdc     libiconv:iconv.obj
 0002:0006fffc       _cns11643_inv_uni2indx_pagefa 10090ffc     libiconv:iconv.obj
 0002:00070008       _translit_page24           10091008     libiconv:iconv.obj
 0002:000701e8       _cp869_page03              100911e8     libiconv:iconv.obj
 0002:00070238       _hkscs2004_uni2indx_page232 10091238     libiconv:iconv.obj
 0002:00070250       _hkscs2001_uni2indx_page8e 10091250     libiconv:iconv.obj
 0002:000702c4       _mac_croatian_page21       100912c4     libiconv:iconv.obj
 0002:000702cc       _cp936ext_2uni_pagea8      100912cc     libiconv:iconv.obj
 0002:000702d8       _hkscs2004_2uni_upages     100912d8     libiconv:iconv.obj
 0002:00070410       _hkscs2001_uni2indx_page97 10091410     libiconv:iconv.obj
 0002:000704cc       _hkscs2004_uni2indx_page24b 100914cc     libiconv:iconv.obj
 0002:000704d0       _uhc_2_2uni_pagea1         100914d0     libiconv:iconv.obj
 0002:00071108       _mac_cyrillic_page22       10092108     libiconv:iconv.obj
 0002:00071170       _translit_page1d4          10092170     libiconv:iconv.obj
 0002:00071970       _iso8859_14_page01_0       10092970     libiconv:iconv.obj
 0002:00071990       _mac_greek_page03          10092990     libiconv:iconv.obj
 0002:000719e0       _cp1254_2uni_2             100929e0     libiconv:iconv.obj
 0002:00071a00       _hkscs1999_2uni_page88     10092a00     libiconv:iconv.obj
 0002:00071ee8       _gb2312_uni2indx_page9e    10092ee8     libiconv:iconv.obj
 0002:00071f54       _hkscs2008_uni2indx_page70 10092f54     libiconv:iconv.obj
 0002:00071f70       _koi8_u_page22             10092f70     libiconv:iconv.obj
 0002:00071fc0       _gb2312_2uni_page21        10092fc0     libiconv:iconv.obj
 0002:00072640       _mac_hebrew_page20         10093640     libiconv:iconv.obj
 0002:00072658       _hkscs2004_uni2indx_page201 10093658     libiconv:iconv.obj
 0002:000726a8       _hkscs2008_2uni_upages     100936a8     libiconv:iconv.obj
 0002:00072770       _viet_decomp_table         10093770     libiconv:iconv.obj
 0002:00072db8       _mac_romania_page22        10093db8     libiconv:iconv.obj
 0002:00072e20       _cjk_variants              10093e20     libiconv:iconv.obj
 0002:00078c2c       _mac_romania_page02        10099c2c     libiconv:iconv.obj
 0002:00078c4c       _cp950ext_uni2indx_page78  10099c4c     libiconv:iconv.obj
 0002:00078c70       _uhc_1_2charset_main       10099c70     libiconv:iconv.obj
 0002:00078ccc       _cp922_2uni_2              10099ccc     libiconv:iconv.obj
 0002:00078cec       _hkscs1999_uni2indx_pagef9 10099cec     libiconv:iconv.obj
 0002:00078cf0       _cp861_2uni                10099cf0     libiconv:iconv.obj
 0002:00078df0       _hkscs2004_uni2indx_page71 10099df0     libiconv:iconv.obj
 0002:00078e3c       _hkscs2004_uni2indx_page26e 10099e3c     libiconv:iconv.obj
 0002:00078e60       _cns11643_5_2uni_page21    10099e60     libiconv:iconv.obj
 0002:0007d198       _koi8_t_page21             1009e198     libiconv:iconv.obj
 0002:0007d1b0       _shift_jisx0213_comp_table_data 1009e1b0     libiconv:iconv.obj
 0002:0007d214       _hkscs2004_uni2indx_page81 1009e214     libiconv:iconv.obj
 0002:0007d230       _big5_uni2indx_page02      1009e230     libiconv:iconv.obj
 0002:0007d2c8       _cp922_2uni_3              1009e2c8     libiconv:iconv.obj
 0002:0007d2e8       _nextstep_page20           1009e2e8     libiconv:iconv.obj
 0002:0007d320       _cp864_page25              1009e320     libiconv:iconv.obj
 0002:0007d360       _cp950ext_uni2indx_page5a  1009e360     libiconv:iconv.obj
 0002:0007d3a0       _atarist_page23            1009e3a0     libiconv:iconv.obj
 0002:0007d3b8       _hkscs2001_uni2indx_page232 1009e3b8     libiconv:iconv.obj
 0002:0007d438       _mulelao_page0e            1009e438     libiconv:iconv.obj
 0002:0007d498       _cp860_page00              1009e498     libiconv:iconv.obj
 0002:0007d4f8       _cp852_page25              1009e4f8     libiconv:iconv.obj
 0002:0007d5a0       _jisx0213_to_ucs_main      1009e5a0     libiconv:iconv.obj
 0002:00082dc0       _pt154_page00              100a3dc0     libiconv:iconv.obj
 0002:00082de0       _hkscs2004_uni2indx_page254 100a3de0     libiconv:iconv.obj
 0002:00082e08       _koi8_t_page00             100a3e08     libiconv:iconv.obj
 0002:00082e28       _big5_2003_2charset_page25 100a3e28     libiconv:iconv.obj
 0002:00082e48       _rk1048_2uni               100a3e48     libiconv:iconv.obj
 0002:00082f48       _cp865_page23              100a3f48     libiconv:iconv.obj
 0002:00082f60       _aliases                   100a3f60     libiconv:iconv.obj
 0002:00084ca0       _hkscs2004_uni2indx_page59 100a5ca0     libiconv:iconv.obj
 0002:00084dc0       _mac_cyrillic_page21       100a5dc0     libiconv:iconv.obj
 0002:00084dd8       _cp1250_page02             100a5dd8     libiconv:iconv.obj
 0002:00084df8       _cp863_page25              100a5df8     libiconv:iconv.obj
 0002:00084ea0       _all_encodings             100a5ea0     libiconv:iconv.obj
 0002:000859f4       _hkscs2008_uni2indx_page94 100a69f4     libiconv:iconv.obj
 0002:00085a00       _cp1133_page0e             100a6a00     libiconv:iconv.obj
 0002:00085a60       _nextstep_page02           100a6a60     libiconv:iconv.obj
 0002:00085a80       _cp932ext_uni2indx_page24  100a6a80     libiconv:iconv.obj
 0002:00085aa0       _mac_roman_page21          100a6aa0     libiconv:iconv.obj
 0002:00085aa8       _iso8859_10_page00         100a6aa8     libiconv:iconv.obj
 0002:00085b88       _cp437_page25              100a6b88     libiconv:iconv.obj
 0002:00085c30       _mac_turkish_page00        100a6c30     libiconv:iconv.obj
 0002:00085c90       _translit_page25           100a6c90     libiconv:iconv.obj
 0002:00085d10       _jisx0208_uni2indx_page4e  100a6d10     libiconv:iconv.obj
 0002:0008717c       _hkscs2001_uni2indx_page251 100a817c     libiconv:iconv.obj
 0002:000871b0       _iso8859_3_2uni            100a81b0     libiconv:iconv.obj
 0002:00087270       _mac_croatian_page02       100a8270     libiconv:iconv.obj
 0002:00087290       _jamo_medial               100a8290     libiconv:iconv.obj
 0002:000872b0       _cp1255_page02             100a82b0     libiconv:iconv.obj
 0002:000872d0       _isoir165ext_uni2indx_page03 100a82d0     libiconv:iconv.obj
 0002:00087300       _hkscs2004_uni2indx_page2a1 100a8300     libiconv:iconv.obj
 0002:00087330       _georgian_academy_2uni     100a8330     libiconv:iconv.obj
 0002:00087370       _mac_greek_page20          100a8370     libiconv:iconv.obj
 0002:00087398       _atarist_page00            100a8398     libiconv:iconv.obj
 0002:000873f8       _hkscs2008_uni2indx_page73 100a83f8     libiconv:iconv.obj
 0002:0008746c       _hkscs2008_uni2indx_page3e 100a846c     libiconv:iconv.obj
 0002:000874a8       _mac_greek_page00          100a84a8     libiconv:iconv.obj
 0002:00087508       _hkscs2004_uni2indx_page56 100a8508     libiconv:iconv.obj
 0002:00087548       _cp737_page00              100a8548     libiconv:iconv.obj
 0002:00087560       _cp1258_page03             100a8560     libiconv:iconv.obj
 0002:00087588       _direct_tab                100a8588     libiconv:iconv.obj
 0002:00087598       _hkscs2001_uni2indx_page26f 100a8598     libiconv:iconv.obj
 0002:000875c8       _hkscs2004_uni2indx_page5f 100a85c8     libiconv:iconv.obj
 0002:000875d8       _cp1046_2uni               100a85d8     libiconv:iconv.obj
 0002:000876d8       _mac_roman_page20          100a86d8     libiconv:iconv.obj
 0002:00087710       _mac_roman_page00          100a8710     libiconv:iconv.obj
 0002:00087770       _stringpool_contents       100a8770     libiconv:iconv.obj
 0002:00088558       _hkscs2008_uni2indx_page231 100a9558     libiconv:iconv.obj
 0002:000885b0       _hkscs2001_uni2indx_page70 100a95b0     libiconv:iconv.obj
 0002:000886e0       _jamo_initial              100a96e0     libiconv:iconv.obj
 0002:00088700       _mac_ukraine_page20        100a9700     libiconv:iconv.obj
 0002:00088718       _cp1257_2uni               100a9718     libiconv:iconv.obj
 0002:00088818       _rk1048_page21             100a9818     libiconv:iconv.obj
 0002:00088830       _cp862_page22              100a9830     libiconv:iconv.obj
 0002:00088880       _mac_romania_page00        100a9880     libiconv:iconv.obj
 0002:00088978       _cp1124_page04             100a9978     libiconv:iconv.obj
 0002:00088a10       _cns11643_3_2uni_page64    100a9a10     libiconv:iconv.obj
 0002:00088c58       _koi8_r_page25             100a9c58     libiconv:iconv.obj
 0002:00088d00       _gb18030ext_page47_2       100a9d00     libiconv:iconv.obj
 0002:00088d30       _koi8_u_page04             100a9d30     libiconv:iconv.obj
 0002:00088dc8       _jisx0213_from_ucs_level1  100a9dc8     libiconv:iconv.obj
 0002:0008a300       _translit_pageff           100ab300     libiconv:iconv.obj
 0002:0008a4e0       _iso8859_15_2uni           100ab4e0     libiconv:iconv.obj
 0002:0008a520       _cp737_page03              100ab520     libiconv:iconv.obj
 0002:0008a570       _ksc5601_uni2indx_pagef9   100ab570     libiconv:iconv.obj
 0002:0008a5b4       _hkscs2001_uni2indx_page219 100ab5b4     libiconv:iconv.obj
 0002:0008a5d8       _mac_croatian_page22       100ab5d8     libiconv:iconv.obj
 0002:0008a640       _hkscs2001_uni2indx_page4e 100ab640     libiconv:iconv.obj
 0002:0008a72c       _hkscs2001_uni2indx_page299 100ab72c     libiconv:iconv.obj
 0002:0008a740       _hkscs1999_uni2indx_page34 100ab740     libiconv:iconv.obj
 0002:0008c230       _cp1256_page06             100ad230     libiconv:iconv.obj
 0002:0008c300       _rk1048_page04             100ad300     libiconv:iconv.obj
 0002:0008c3f0       _iso8859_6_page06          100ad3f0     libiconv:iconv.obj
 0002:0008c440       _tcvn_2uni_2               100ad440     libiconv:iconv.obj
 0002:0008c540       _uhc_1_uni2indx_pageac     100ad540     libiconv:iconv.obj
 0002:0008cc6c       _jisx0212_uni2indx_page21  100adc6c     libiconv:iconv.obj
 0002:0008cc78       _cp1256_page00             100adc78     libiconv:iconv.obj
 0002:0008ccd8       _hkscs2004_uni2indx_page26b 100adcd8     libiconv:iconv.obj
 0002:0008cd2c       _hkscs2001_uni2indx_page35 100add2c     libiconv:iconv.obj
 0002:0008cd44       _hkscs2001_uni2indx_page65 100add44     libiconv:iconv.obj
 0002:0008cd68       _tds565_page01             100add68     libiconv:iconv.obj
 0002:0008cda8       _cns11643_inv_uni2indx_page02 100adda8     libiconv:iconv.obj
 0002:0008ce1c       _mac_romania_page20        100ade1c     libiconv:iconv.obj
 0002:0008ce54       ?conversion_lists@?1??iso2022_jp2_wctomb@@9@9 100ade54     libiconv:iconv.obj
 0002:0008ce64       _hkscs2008_uni2indx_page241 100ade64     libiconv:iconv.obj
 0002:0008ce80       _hkscs2008_uni2indx_page84 100ade80     libiconv:iconv.obj
 0002:0008cf08       _cp857_page25              100adf08     libiconv:iconv.obj
 0002:0008cfb0       _cp1129_2uni               100adfb0     libiconv:iconv.obj
 0002:0008d070       _mac_centraleurope_page22  100ae070     libiconv:iconv.obj
 0002:0008d090       _hkscs2004_2charset        100ae090     libiconv:iconv.obj
 0002:0008d188       _translit_page02           100ae188     libiconv:iconv.obj
 0002:0008d198       _jamo_medial_index         100ae198     libiconv:iconv.obj
 0002:0008d1b8       _cp1255_2uni               100ae1b8     libiconv:iconv.obj
 0002:0008d2b8       _hkscs1999_uni2indx_page2e 100ae2b8     libiconv:iconv.obj
 0002:0008d3c8       _iso8859_14_page1e_1       100ae3c8     libiconv:iconv.obj
 0002:0008d3d0       _translit_pagef9           100ae3d0     libiconv:iconv.obj
 0002:0008d6b0       _mac_ukraine_page22        100ae6b0     libiconv:iconv.obj
 0002:0008d718       _mac_cyrillic_page04       100ae718     libiconv:iconv.obj
 0002:0008d778       _cp864_pagefe              100ae778     libiconv:iconv.obj
 0002:0008d800       _koi8_r_page23             100ae800     libiconv:iconv.obj
 0002:0008d808       _big5_uni2indx_page24      100ae808     libiconv:iconv.obj
 0002:0008d89c       _hkscs2004_uni2indx_page79 100ae89c     libiconv:iconv.obj
 0002:0008d8d0       _mac_arabic_page06         100ae8d0     libiconv:iconv.obj
 0002:0008d9a0       _atarist_page03            100ae9a0     libiconv:iconv.obj
 0002:0008d9d8       _big5_uni2indx_pagefe      100ae9d8     libiconv:iconv.obj
 0002:0008da34       _hkscs2008_uni2indx_page97 100aea34     libiconv:iconv.obj
 0002:0008da48       _jisx0208_uni2indx_page20  100aea48     libiconv:iconv.obj
 0002:0008db10       _hkscs2008_uni2indx_page88 100aeb10     libiconv:iconv.obj
 0002:0008db38       _hkscs2004_2uni_page87     100aeb38     libiconv:iconv.obj
 0002:0008dbac       _gb18030ext_pagefe         100aebac     libiconv:iconv.obj
 0002:0008dbcc       _cp1254_page20             100aebcc     libiconv:iconv.obj
 0002:0008dbfc       _cp864_2uni_1              100aebfc     libiconv:iconv.obj
 0002:0008dc1c       _hkscs2008_uni2indx_page20a 100aec1c     libiconv:iconv.obj
 0002:0008dc40       _nextstep_2uni             100aec40     libiconv:iconv.obj
 0002:0008dd40       _iso8859_2_page02          100aed40     libiconv:iconv.obj
 0002:0008dd60       _uhc_2_uni2indx_pagec8     100aed60     libiconv:iconv.obj
 0002:0008e14c       _hkscs2001_uni2indx_page28d 100af14c     libiconv:iconv.obj
 0002:0008e17c       _tcvn_2uni_1               100af17c     libiconv:iconv.obj
 0002:0008e1ac       _jamo_final_notinitial     100af1ac     libiconv:iconv.obj
 0002:0008e1cc       _hkscs2001_uni2indx_page67 100af1cc     libiconv:iconv.obj
 0002:0008e1e8       _gbkext_inv_2charset       100af1e8     libiconv:iconv.obj
 0002:000951bc       _cp862_page03              100b61bc     libiconv:iconv.obj
 0002:000951f4       _hkscs2008_uni2indx_page6a 100b61f4     libiconv:iconv.obj
 0002:00095200       _cns11643_3_2uni_page21    100b6200     libiconv:iconv.obj
 0002:00098208       _big5_uni2indx_page30      100b9208     libiconv:iconv.obj
 0002:00098300       _cp874_page20              100b9300     libiconv:iconv.obj
 0002:00098318       _iso8859_9_page00          100b9318     libiconv:iconv.obj
 0002:00098348       _cp922_2uni_1              100b9348     libiconv:iconv.obj
 0002:00098368       _hkscs2001_2charset        100b9368     libiconv:iconv.obj
 0002:00098450       _iso2022_jp3_comp_table_data 100b9450     libiconv:iconv.obj
 0002:000984b8       _cp737_page22              100b94b8     libiconv:iconv.obj
 0002:00098508       _gbkext_inv_uni2indx_page30 100b9508     libiconv:iconv.obj
 0002:00098548       _koi8_t_page20             100b9548     libiconv:iconv.obj
 0002:00098578       _hkscs1999_2uni_page8d     100b9578     libiconv:iconv.obj
 0002:00099e00       _koi8_t_2uni               100bae00     libiconv:iconv.obj
 0002:00099f00       _mac_iceland_page02        100baf00     libiconv:iconv.obj
 0002:00099f20       _cp852_page00              100baf20     libiconv:iconv.obj
 0002:0009a000       _iso8859_2_page00          100bb000     libiconv:iconv.obj
 0002:0009a0e0       _jisx0208_uni2indx_page25  100bb0e0     libiconv:iconv.obj
 0002:0009a140       _translit_page1e           100bb140     libiconv:iconv.obj
 0002:0009a280       _mac_turkish_2uni          100bb280     libiconv:iconv.obj
 0002:0009a380       _iso8859_5_page00          100bb380     libiconv:iconv.obj
 0002:0009a390       _cp1252_page20             100bb390     libiconv:iconv.obj
 0002:0009a3c0       _georgian_ps_page10        100bb3c0     libiconv:iconv.obj
 0002:0009a3e8       _hkscs2008_uni2indx_page235 100bb3e8     libiconv:iconv.obj
 0002:0009a450       _iso8859_13_page00         100bb450     libiconv:iconv.obj
 0002:0009a530       _gb18030ext_page9f         100bb530     libiconv:iconv.obj
 0002:0009a550       _isoir165ext_uni2indx_page4e 100bb550     libiconv:iconv.obj
 0002:0009b110       _koi8_ru_page00            100bc110     libiconv:iconv.obj
 0002:0009b168       _translit_page31           100bc168     libiconv:iconv.obj
 0002:0009b228       _translit_page22_4         100bc228     libiconv:iconv.obj
 0002:0009b288       _translit_page20           100bc288     libiconv:iconv.obj
 0002:0009b338       _pt154_page04              100bc338     libiconv:iconv.obj
 0002:0009b428       _iso8859_7_page20          100bc428     libiconv:iconv.obj
 0002:0009b438       _hp_roman8_page01          100bc438     libiconv:iconv.obj
 0002:0009b470       _hkscs2001_uni2indx_page21d 100bc470     libiconv:iconv.obj
 0002:0009b4a0       _cp856_page25              100bc4a0     libiconv:iconv.obj
 0002:0009b548       _iso8859_3_page02          100bc548     libiconv:iconv.obj
 0002:0009b550       _hkscs1999_2uni_pagef9     100bc550     libiconv:iconv.obj
 0002:0009bcb0       _cp932ext_uni2indx_page4e  100bccb0     libiconv:iconv.obj
 0002:0009be98       _hkscs2001_uni2indx_page76 100bce98     libiconv:iconv.obj
 0002:0009bf58       _isoir165ext_uni2indx_page32 100bcf58     libiconv:iconv.obj
 0002:0009bfd8       _georgian_ps_page20        100bcfd8     libiconv:iconv.obj
 0002:0009c008       _mac_roman_2uni            100bd008     libiconv:iconv.obj
 0002:0009c108       _gb2312_uni2indx_page4e    100bd108     libiconv:iconv.obj
 0002:0009d4c8       _mac_iceland_page22        100be4c8     libiconv:iconv.obj
 0002:0009d530       _cns11643_1_2uni_page44    100be530     libiconv:iconv.obj
 0002:0009ff64       _cp1258_comb_table         100c0f64     libiconv:iconv.obj
 0002:0009ff6c       _cp950ext_uni2indx_page25  100c0f6c     libiconv:iconv.obj
 0002:0009ff98       _cp922_page00              100c0f98     libiconv:iconv.obj
 0002:0009fff0       _iso8859_7_page03          100c0ff0     libiconv:iconv.obj
 0002:000a0048       _cp1250_2uni               100c1048     libiconv:iconv.obj
 0002:000a0148       _hkscs2004_uni2indx_page97 100c1148     libiconv:iconv.obj
 0002:000a01a0       _cns11643_7_2uni_page21    100c11a0     libiconv:iconv.obj
 0002:000a34b8       _cp860_page25              100c44b8     libiconv:iconv.obj
 0002:000a3560       _cp1255_comb_table         100c4560     libiconv:iconv.obj
 0002:000a3568       _translit_page31_5         100c4568     libiconv:iconv.obj
 0002:000a3988       _cp856_page00              100c4988     libiconv:iconv.obj
 0002:000a39e0       _big5_2003_2uni_pagec6     100c49e0     libiconv:iconv.obj
 0002:000a3a70       _iso8859_4_page00          100c4a70     libiconv:iconv.obj
 0002:000a3b50       _cp1131_page25             100c4b50     libiconv:iconv.obj
 0002:000a3be8       _jamo_initial_index        100c4be8     libiconv:iconv.obj
 0002:000a3c08       _cp1258_comp_bases         100c4c08     libiconv:iconv.obj
 0002:000a3c38       _atarist_page22            100c4c38     libiconv:iconv.obj
 0002:000a3c98       _cp437_page22              100c4c98     libiconv:iconv.obj
 0002:000a3ce8       _hkscs2008_uni2indx_page3a 100c4ce8     libiconv:iconv.obj
 0002:000a3d28       _gbkext_inv_uni2indx_pagefe 100c4d28     libiconv:iconv.obj
 0002:000a3da8       _uhc_1_2charset            100c4da8     libiconv:iconv.obj
 0002:000a53e8       _cp1129_page03             100c63e8     libiconv:iconv.obj
 0002:000a5410       _cp874_page0e              100c6410     libiconv:iconv.obj
 0002:000a5470       _hkscs2001_uni2indx_page29c 100c6470     libiconv:iconv.obj
 0002:000a5490       _hkscs2001_2uni_upages     100c6490     libiconv:iconv.obj
 0002:000a55e8       _cp1125_page25             100c65e8     libiconv:iconv.obj
 0002:000a5690       _cp775_2uni                100c6690     libiconv:iconv.obj
 0002:000a5790       _iso8859_15_page00         100c6790     libiconv:iconv.obj
 0002:000a57b0       _jisx0213_from_ucs_level2_data 100c67b0     libiconv:iconv.obj
 0002:000aaf40       _koi8_ru_2uni              100cbf40     libiconv:iconv.obj
 0002:000ab040       _hkscs2004_uni2indx_page74 100cc040     libiconv:iconv.obj
 0002:000ab068       _iso8859_16_page02         100cc068     libiconv:iconv.obj
 0002:000ab070       _cns11643_15_2uni_upages   100cc070     libiconv:iconv.obj
 0002:000ab464       _koi8_u_page23             100cc464     libiconv:iconv.obj
 0002:000ab470       _cp950_2uni_pagea1         100cc470     libiconv:iconv.obj
 0002:000ab6e4       _jisx0212_uni2indx_pageff  100cc6e4     libiconv:iconv.obj
 0002:000ab6fc       _cp1258_page02             100cc6fc     libiconv:iconv.obj
 0002:000ab720       _cp950ext_2charset         100cc720     libiconv:iconv.obj
 0002:000ab778       _cp1046_pagefe             100cc778     libiconv:iconv.obj
 0002:000ab808       _armscii_8_page20          100cc808     libiconv:iconv.obj
 0002:000ab820       _cp866_page22              100cc820     libiconv:iconv.obj
 0002:000ab828       _translit_page1e_2         100cc828     libiconv:iconv.obj
 0002:000ab838       _big5_2003_2uni_pagef9     100cc838     libiconv:iconv.obj
 0002:000ab890       _hkscs2004_uni2indx_page21d 100cc890     libiconv:iconv.obj
 0002:000ab8dc       _hkscs1999_uni2indx_page27 100cc8dc     libiconv:iconv.obj
 0002:000ab8ec       _cp1254_2uni_3             100cc8ec     libiconv:iconv.obj
 0002:000ab90c       _cp861_page03              100cc90c     libiconv:iconv.obj
 0002:000ab948       _jisx0208_2uni_page30      100cc948     libiconv:iconv.obj
 0002:000aeb48       _jisx0208_uni2indx_page30  100cfb48     libiconv:iconv.obj
 0002:000aeb88       _translit_page06           100cfb88     libiconv:iconv.obj
 0002:000aeba8       _gb18030ext_page36         100cfba8     libiconv:iconv.obj
 0002:000aebd8       _mac_thai_page0e           100cfbd8     libiconv:iconv.obj
 0002:000aec38       _ksc5601_uni2indx_page20   100cfc38     libiconv:iconv.obj
 0002:000aedd8       _mac_hebrew_page00         100cfdd8     libiconv:iconv.obj
 0002:000aee38       _cp1046_page00             100cfe38     libiconv:iconv.obj
 0002:000aeea8       _cp932ext_uni2indx_page32  100cfea8     libiconv:iconv.obj
 0002:000aef20       _cp862_2uni                100cff20     libiconv:iconv.obj
 0002:000af020       _cp1256_page01             100d0020     libiconv:iconv.obj
 0002:000af068       _uhc_2_2uni_main_pagea1    100d0068     libiconv:iconv.obj
 0002:000af100       _gb18030uni_charset2uni_ranges 100d0100     libiconv:iconv.obj
 0002:000af438       _cp863_page00              100d0438     libiconv:iconv.obj
 0002:000af498       _cp1046_page25             100d0498     libiconv:iconv.obj
 0002:000af4b8       _cp866_page04              100d04b8     libiconv:iconv.obj
 0002:000af518       _cp775_page25              100d0518     libiconv:iconv.obj
 0002:000af5c0       _gb18030uni_uni2charset_ranges 100d05c0     libiconv:iconv.obj
 0002:000af8f8       _hkscs2004_uni2indx_page43 100d08f8     libiconv:iconv.obj
 0002:000afa10       _translit_data             100d0a10     libiconv:iconv.obj
 0002:000b8880       _big5_uni2indx_page20      100d9880     libiconv:iconv.obj
 0002:000b8930       _iso8859_4_2uni            100d9930     libiconv:iconv.obj
 0002:000b89f0       _cp932ext_uni2indx_page21  100d99f0     libiconv:iconv.obj
 0002:000b8a60       _cp1255_page20             100d9a60     libiconv:iconv.obj
 0002:000b8a98       _cp853_page25              100d9a98     libiconv:iconv.obj
 0002:000b8b40       _hkscs2001_uni2indx_page249 100d9b40     libiconv:iconv.obj
 0002:000b8b88       _hkscs2001_uni2indx_page3c 100d9b88     libiconv:iconv.obj
 0002:000b8c40       _cp1125_page00             100d9c40     libiconv:iconv.obj
 0002:000b8c58       _cns11643_inv_uni2indx_page200 100d9c58     libiconv:iconv.obj
 0002:000bb610       _cp863_2uni                100dc610     libiconv:iconv.obj
 0002:000bb710       _hkscs2008_2uni_page87     100dc710     libiconv:iconv.obj
 0002:000bb80c       _hkscs2008_uni2indx_page25d 100dc80c     libiconv:iconv.obj
 0002:000bb83c       _jamo_final                100dc83c     libiconv:iconv.obj
 0002:000bb85c       _iso8859_14_page01_1       100dc85c     libiconv:iconv.obj
 0002:000bb870       _pt154_2uni                100dc870     libiconv:iconv.obj
 0002:000bb8f0       _cp864_page06              100dc8f0     libiconv:iconv.obj
 0002:000bb958       _hkscs2004_uni2indx_page85 100dc958     libiconv:iconv.obj
 0002:000bb980       _hkscs2001_uni2indx_page6c 100dc980     libiconv:iconv.obj
 0002:000bba00       _cp852_page02              100dca00     libiconv:iconv.obj
 0002:000bba20       _armscii_8_page00          100dca20     libiconv:iconv.obj
 0002:000bba28       _mac_iceland_page21        100dca28     libiconv:iconv.obj
 0002:000bba30       _translit_page00           100dca30     libiconv:iconv.obj
 0002:000bbce0       _hkscs1999_uni2indx_page00 100dcce0     libiconv:iconv.obj
 0002:000bbd98       _cns11643_4a_2uni_upages   100dcd98     libiconv:iconv.obj
 0002:000bc0e8       _cp1125_2uni               100dd0e8     libiconv:iconv.obj
 0002:000bc188       _cp775_page00              100dd188     libiconv:iconv.obj
 0002:000bc268       _tds565_page00_1           100dd268     libiconv:iconv.obj
 0002:000bc2a8       _gbkext2_2uni_pagea8       100dd2a8     libiconv:iconv.obj
 0002:000c0348       _isoir165ext_2charset      100e1348     libiconv:iconv.obj
 0002:000c0a20       _cp1258_page20             100e1a20     libiconv:iconv.obj
 0002:000c0a50       _iso8859_16_page20         100e1a50     libiconv:iconv.obj
 0002:000c0a58       _hkscs1999_uni2indx_page2f8 100e1a58     libiconv:iconv.obj
 0002:000c0ad0       _hkscs1999_2uni_upages     100e1ad0     libiconv:iconv.obj
 0002:000c1a04       _tcvn_comp_bases           100e2a04     libiconv:iconv.obj
 0002:000c1a38       _cp1252_2uni               100e2a38     libiconv:iconv.obj
 0002:000c1a78       _armscii_8_page05          100e2a78     libiconv:iconv.obj
 0002:000c1ad8       _mac_centraleurope_page22_1 100e2ad8     libiconv:iconv.obj
 0002:000c1ae0       _riscos1_page01            100e2ae0     libiconv:iconv.obj
 0002:000c1b08       _cp869_page00              100e2b08     libiconv:iconv.obj
 0002:000c1b28       _cns11643_5_2uni_upages    100e2b28     libiconv:iconv.obj
 0002:000c1ebc       _cp1252_page02             100e2ebc     libiconv:iconv.obj
 0002:000c1edc       _gb18030ext_page39         100e2edc     libiconv:iconv.obj
 0002:000c1f10       _cp932ext_2uni_pageed      100e2f10     libiconv:iconv.obj
 0002:000c2200       _iso8859_6_page00          100e3200     libiconv:iconv.obj
 0002:000c2210       _iso8859_3_page00          100e3210     libiconv:iconv.obj
 0002:000c2270       _cns11643_inv_uni2indx_page2f8 100e3270     libiconv:iconv.obj
 0002:000c22f8       _mac_turkish_page21        100e32f8     libiconv:iconv.obj
 0002:000c2300       _rk1048_page20             100e3300     libiconv:iconv.obj
 0002:000c2330       _mac_turkish_page20        100e3330     libiconv:iconv.obj
 0002:000c2358       _koi8_u_2uni               100e3358     libiconv:iconv.obj
 0002:000c2458       _iso8859_8_2uni            100e3458     libiconv:iconv.obj
 0002:000c2518       _cp861_page00              100e3518     libiconv:iconv.obj
 0002:000c2578       _georgian_ps_2uni_2        100e3578     libiconv:iconv.obj
 0002:000c25c8       _cp737_2uni                100e35c8     libiconv:iconv.obj
 0002:000c26c8       _mac_hebrew_2uni           100e36c8     libiconv:iconv.obj
 0002:000c27c8       _big5_2uni_pagec9          100e37c8     libiconv:iconv.obj
 0002:000c6390       _xdirect_tab               100e7390     libiconv:iconv.obj
 0002:000c63a0       _mac_cyrillic_page00       100e73a0     libiconv:iconv.obj
 0002:000c63c0       _cp863_page03              100e73c0     libiconv:iconv.obj
 0002:000c63f8       _koi8_r_page22             100e73f8     libiconv:iconv.obj
 0002:000c6448       _hkscs2001_uni2indx_page4b 100e7448     libiconv:iconv.obj
 0002:000c64b0       _jisx0212_2uni_page29      100e74b0     libiconv:iconv.obj
 0002:000c66d8       _translit_page22           100e76d8     libiconv:iconv.obj
 0002:000c6798       _cjk_variants_indx         100e7798     libiconv:iconv.obj
 0002:000d0b98       _koi8_ru_page22            100f1b98     libiconv:iconv.obj
 0002:000d0be8       _riscos1_page22            100f1be8     libiconv:iconv.obj
 0002:000d0bf8       _georgian_ps_page01        100f1bf8     libiconv:iconv.obj
 0002:000d0c40       _cp932ext_uni2indx_page83  100f1c40     libiconv:iconv.obj
 0002:000d0cf0       _cp1253_page00             100f1cf0     libiconv:iconv.obj
 0002:000d0d10       _mac_romania_page21        100f1d10     libiconv:iconv.obj
 0002:000d0d18       _iso8859_14_page1e_0       100f1d18     libiconv:iconv.obj
 0002:000d0da0       _cp932ext_uni2indx_pagef9  100f1da0     libiconv:iconv.obj
 0002:000d0dec       _cp775_page20              100f1dec     libiconv:iconv.obj
 0002:000d0df4       _hp_roman8_page02          100f1df4     libiconv:iconv.obj
 0002:000d0e18       _big5_uni2indx_page4e      100f1e18     libiconv:iconv.obj
 0002:000d2288       _cns11643_7_2uni_upages    100f3288     libiconv:iconv.obj
 0002:000d25a0       _hkscs2004_uni2indx_page27b 100f35a0     libiconv:iconv.obj
 0002:000d2618       _cp1161_2uni               100f3618     libiconv:iconv.obj
 0002:000d26d8       _mac_ukraine_2uni          100f36d8     libiconv:iconv.obj
 0002:000d27d8       _cp1252_page01             100f37d8     libiconv:iconv.obj
 0002:000d2820       _big5_2003_2uni_pagea1     100f3820     libiconv:iconv.obj
 0002:000d2a98       _cp852_2uni                100f3a98     libiconv:iconv.obj
 0002:000d2b98       _koi8_t_page04             100f3b98     libiconv:iconv.obj
 0002:000d2c88       _jisx0212_uni2indx_page00  100f3c88     libiconv:iconv.obj
 0002:000d2da0       _armscii_8_2uni            100f3da0     libiconv:iconv.obj
 0002:000d2e60       _hkscs2001_uni2indx_page7a 100f3e60     libiconv:iconv.obj
 0002:000d2f80       _cp932ext_2uni_pagefa      100f3f80     libiconv:iconv.obj
 0002:000d3288       _nextstep_page00           100f4288     libiconv:iconv.obj
 0002:000d32e8       _mac_arabic_2uni           100f42e8     libiconv:iconv.obj
 0002:000d33e8       _cp865_page03              100f43e8     libiconv:iconv.obj
 0002:000d3420       _gbkext1_2uni_page81       100f4420     libiconv:iconv.obj
 0002:000d63a0       _hp_roman8_page00          100f73a0     libiconv:iconv.obj
 0002:000d6400       _georgian_academy_page00   100f7400     libiconv:iconv.obj
 0002:000d6420       _riscos1_page21            100f7420     libiconv:iconv.obj
 0002:000d6430       _hkscs2008_uni2indx_page2ad 100f7430     libiconv:iconv.obj
 0002:000d6470       _ksc5601_2uni_page4a       100f7470     libiconv:iconv.obj
 0002:000d8aa0       _viscii_2uni_1             100f9aa0     libiconv:iconv.obj
 0002:000d8ae0       _gbkext_inv_uni2indx_page20 100f9ae0     libiconv:iconv.obj
 0002:000d8b90       _mac_iceland_page00        100f9b90     libiconv:iconv.obj
 0002:000d8bf0       _big5_uni2indx_page00      100f9bf0     libiconv:iconv.obj
 0002:000d8c30       _hkscs2001_uni2indx_page69 100f9c30     libiconv:iconv.obj
 0002:000d8c90       _jisx0213_to_ucs_pagestart 100f9c90     libiconv:iconv.obj
 0002:000d9078       _jisx0208_uni2indx_page03  100fa078     libiconv:iconv.obj
 0002:000d90d0       _cns11643_15_2uni_page21   100fa0d0     libiconv:iconv.obj
 0002:000dc8d8       _jisx0208_uni2indx_page00  100fd8d8     libiconv:iconv.obj
 0002:000dc918       _mac_turkish_page02        100fd918     libiconv:iconv.obj
 0002:000dc938       _hkscs2004_uni2indx_page3d 100fd938     libiconv:iconv.obj
 0002:000dc978       _hkscs2004_2uni_page8c     100fd978     libiconv:iconv.obj
 0002:000dcaf8       _cp932ext_uni2indx_page57  100fdaf8     libiconv:iconv.obj
 0002:000dcba8       _gb18030ext_page47_1       100fdba8     libiconv:iconv.obj
 0002:000dcbc8       _mac_croatian_page20       100fdbc8     libiconv:iconv.obj
 0002:000dcc00       _iso8859_16_page00         100fdc00     libiconv:iconv.obj
 0002:000dcce0       _mac_turkish_page01        100fdce0     libiconv:iconv.obj
 0002:000dcd60       _hkscs2004_uni2indx_page4f 100fdd60     libiconv:iconv.obj
 0002:000dcd90       _hkscs2004_uni2indx_page235 100fdd90     libiconv:iconv.obj
 0002:000dcdd8       _cp1251_page00             100fddd8     libiconv:iconv.obj
 0002:000dcdf8       _gb18030ext_page34         100fddf8     libiconv:iconv.obj
 0002:000dce68       _cp1125_page04             100fde68     libiconv:iconv.obj
 0002:000dcf00       _hkscs2004_uni2indx_page20a 100fdf00     libiconv:iconv.obj
 0002:000dcf68       _cp861_page23              100fdf68     libiconv:iconv.obj
 0002:000dcf80       _iso8859_5_page04          100fdf80     libiconv:iconv.obj
 0002:000dcfe0       _armscii_8_page00_1        100fdfe0     libiconv:iconv.obj
 0002:000dd000       _translit_page03           100fe000     libiconv:iconv.obj
 0002:000dd060       _hkscs2008_uni2indx_page38 100fe060     libiconv:iconv.obj
 0002:000dd080       _iso8859_10_2uni           100fe080     libiconv:iconv.obj
 0002:000dd140       _cp864_page22              100fe140     libiconv:iconv.obj
 0002:000dd178       _jisx0212_2charset         100fe178     libiconv:iconv.obj
 0002:000e00e0       _hkscs2004_uni2indx_page9f 101010e0     libiconv:iconv.obj
 0002:000e0110       _translit_page2a           10101110     libiconv:iconv.obj
 0002:000e0120       _cp1254_page00             10101120     libiconv:iconv.obj
 0002:000e0150       _cp1255_comp_table         10101150     libiconv:iconv.obj
 0002:000e0190       _cp865_page00              10101190     libiconv:iconv.obj
 0002:000e01f0       _cp855_page04              101011f0     libiconv:iconv.obj
 0002:000e0250       _viscii_page1e             10101250     libiconv:iconv.obj
 0002:000e02b0       _cp1255_page00             101012b0     libiconv:iconv.obj
 0002:000e0308       _hkscs2004_uni2indx_page3f 10101308     libiconv:iconv.obj
 0002:000e03c8       _cp864_2uni_2              101013c8     libiconv:iconv.obj
 0002:000e04c8       _cp860_page03              101014c8     libiconv:iconv.obj
 0002:000e0500       _hkscs1999_uni2indx_page23 10101500     libiconv:iconv.obj
 0002:000e05a0       _cp853_page00              101015a0     libiconv:iconv.obj
 0002:000e0600       _hkscs2008_uni2indx_page43 10101600     libiconv:iconv.obj
 0002:000e0680       _hkscs2008_2charset        10101680     libiconv:iconv.obj
 0002:000e0708       _hkscs1999_uni2indx_page297 10101708     libiconv:iconv.obj
 0002:000e0af8       _cns11643_1_2uni_page21    10101af8     libiconv:iconv.obj
 0002:000e0ee0       _cp857_page01              10101ee0     libiconv:iconv.obj
 0002:000e0f28       _cp1046_pagef8             10101f28     libiconv:iconv.obj
 0002:000e0f38       _hkscs2004_uni2indx_page6e 10101f38     libiconv:iconv.obj
 0002:000e0f50       _cp1255_comp_table_data    10101f50     libiconv:iconv.obj
 0002:000e0fe0       _cp866_2uni                10101fe0     libiconv:iconv.obj
 0002:000e1080       _iso8859_9_page01          10102080     libiconv:iconv.obj
 0002:000e10c8       _georgian_academy_page01   101020c8     libiconv:iconv.obj
 0002:000e1358       __sehtable$__onexit        10102358     LIBCMT:onexit.obj
 0002:000e1378       __sehtable$__CRT_INIT@12   10102378     LIBCMT:dllcrt0.obj
 0002:000e1398       __sehtable$___DllMainCRTStartup 10102398     LIBCMT:dllcrt0.obj
 0002:000e13b8       __sehtable$__freefls@4     101023b8     LIBCMT:tidtable.obj
 0002:000e13e0       __sehtable$__initptd       101023e0     LIBCMT:tidtable.obj
 0002:000e1408       __sehtable$_doexit         10102408     LIBCMT:crt0dat.obj
 0002:000e1428       __sehtable$_flsall         10102428     LIBCMT:fflush.obj
 0002:000e1450       __sehtable$_raise          10102450     LIBCMT:winsig.obj
 0002:000e1470       __sehtable$___set_fpsr_sse2 10102470     LIBCMT:fpctrl.obj
 0002:000e1490       __sehtable$___updatetlocinfo 10102490     LIBCMT:localref.obj
 0002:000e14b0       __sehtable$___updatetmbcinfo 101024b0     LIBCMT:mbctype.obj
 0002:000e14d0       __sehtable$__setmbcp       101024d0     LIBCMT:mbctype.obj
 0002:000e14f0       __sehtable$__locterm       101024f0     LIBCMT:wsetloca.obj
 0002:000e1510       __sehtable$__ioinit        10102510     LIBCMT:ioinit.obj
 0002:000e1530       __sehtable$?terminate@@YAXXZ 10102530     LIBCMT:hooks.obj
 0002:000e1550       __sehtable$___DestructExceptionObject 10102550     LIBCMT:frame.obj
 0002:000e1570       __sehtable$?_Type_info_dtor@type_info@@CAXPAV1@@Z 10102570     LIBCMT:typname.obj
 0002:000e1590       __sehtable$__mtinitlocknum 10102590     LIBCMT:mlock.obj
 0002:000e15b0       __sehtable$__IsNonwritableInCurrentImage 101025b0     LIBCMT:pesect.obj
 0002:000e15d0       __sehtable$__fcloseall     101025d0     LIBCMT:closeall.obj
 0002:000e15f0       __sehtable$__commit        101025f0     LIBCMT:commit.obj
 0002:000e1610       __sehtable$__write         10102610     LIBCMT:write.obj
 0002:000e1630       __sehtable$_fclose         10102630     LIBCMT:fclose.obj
 0002:000e1650       __sehtable$___lock_fhandle 10102650     LIBCMT:osfinfo.obj
 0002:000e1670       __sehtable$__close         10102670     LIBCMT:close.obj
 0002:000e2130       .edata                     10103130     iconv.exp
 0002:000e2158       rgpv                       10103158     iconv.exp
 0002:000e215c       rgszName                   1010315c     iconv.exp
 0002:000e2160       rgwOrd                     10103160     iconv.exp
 0002:000e2162       szName                     10103162     iconv.exp
 0002:000e216d       $N00001                    1010316d     iconv.exp
 0002:000e22c4       .idata$6                   101032c4     kernel32:KERNEL32.dll
 0003:00000000       _errtable                  10104000     LIBCMT:dosmap.obj
 0003:00000168       _ErrnoNoMem                10104168     LIBCMT:dosmap.obj
 0003:0000016c       _DoserrorNoMem             1010416c     LIBCMT:dosmap.obj
 0003:00000170       __assertstring             10104170     LIBCMT:wassert.obj
 0003:000001c0       _dotdotdot                 101041c0     LIBCMT:wassert.obj
 0003:000001c4       _newline                   101041c4     LIBCMT:wassert.obj
 0003:000001c8       _dblnewline                101041c8     LIBCMT:wassert.obj
 0003:00000470       _NAME_                     10104470     LIBCMT:sqrt.obj
 0003:000004a0       ?_names@?1??_get_fname@@9@9 101044a0     LIBCMT:fpexcept.obj
 0003:00000588       _over                      10104588     LIBCMT:fpctrl.obj
 0003:00000594       _under                     10104594     LIBCMT:fpctrl.obj
 0003:000005a0       ?__DAZ_ENABLED@?1??__set_fpsr_sse2@@9@9 101045a0     LIBCMT:fpctrl.obj
 0003:000009d0       ___rgctypeflag             101049d0     LIBCMT:mbctype.obj
 0003:000009d8       ___rgcode_page_info        101049d8     LIBCMT:mbctype.obj
 0003:00000cf4       __ctype_loc_style          10104cf4     LIBCMT:wsetloca.obj
 0003:00000d38       ?isPackaged@?1??__crtIsPackagedApp@@9@9 10104d38     LIBCMT:winapisupp.obj
 0003:00000d70       __locktable                10104d70     LIBCMT:mlock.obj
 0003:00000f20       _DoubleFormat              10104f20     LIBCMT:intrncvt.obj
 0003:00000f38       _FloatFormat               10104f38     LIBCMT:intrncvt.obj
 0003:00001228       __module                   10105228     binding.obj
 0003:00001344       _allocator_arg             10105344     libcpmt:syserror.obj
 0003:00001345       _piecewise_construct       10105345     libcpmt:syserror.obj
 0003:00001346       __Tuple_alloc              10105346     libcpmt:xthrow.obj
 0003:00001347       _ignore                    10105347     libcpmt:xthrow.obj
 0003:00001348       _allocator_arg             10105348     libcpmt:xthrow.obj
 0003:00001349       _piecewise_construct       10105349     libcpmt:xthrow.obj
 0003:0000134c       ___proc_attached           1010534c     LIBCMT:dllcrt0.obj
 0003:00001360       _GS_ExceptionRecord        10105360     LIBCMT:gs_report.obj
 0003:000013b0       _GS_ContextRecord          101053b0     LIBCMT:gs_report.obj
 0003:0000167c       _DebuggerWasPresent        1010567c     LIBCMT:gs_report.obj
 0003:000016c8       _ctrlc_action              101056c8     LIBCMT:winsig.obj
 0003:000016cc       _ctrlbreak_action          101056cc     LIBCMT:winsig.obj
 0003:000016d0       _abort_action              101056d0     LIBCMT:winsig.obj
 0003:000016d4       _term_action               101056d4     LIBCMT:winsig.obj
 0003:000016d8       _ConsoleCtrlHandler_Installed 101056d8     LIBCMT:winsig.obj
 0003:000016dc       ?pfnMessageBox@?1??__crtMessageBoxW@@9@9 101056dc     LIBCMT:crtmboxw.obj
 0003:000016e0       ?pfnGetActiveWindow@?1??__crtMessageBoxW@@9@9 101056e0     LIBCMT:crtmboxw.obj
 0003:000016e4       ?pfnGetLastActivePopup@?1??__crtMessageBoxW@@9@9 101056e4     LIBCMT:crtmboxw.obj
 0003:000016e8       ?pfnGetProcessWindowStation@?1??__crtMessageBoxW@@9@9 101056e8     LIBCMT:crtmboxw.obj
 0003:000016ec       ?pfnGetUserObjectInformation@?1??__crtMessageBoxW@@9@9 101056ec     LIBCMT:crtmboxw.obj
 0003:000016f8       ?outmsg@?9??_NMSG_WRITE@@9@9 101056f8     LIBCMT:crt0msg.obj
 0003:00001d44       _fSystemSet                10105d44     LIBCMT:mbctype.obj
 0003:00001e50       ?_pgmname@?1??_setargv@@9@9 10105e50     LIBCMT:stdargv.obj
 0003:00001f64       ___type_info_root_node     10105f64     LIBCMT:typname.obj
 0003:00001f70       _lclcritsects              10105f70     LIBCMT:mlock.obj
 0003:000020c0       _g_pfnRtlGenRandom         101060c0     LIBCMT:rand_s.obj
 0003:000020cc       ___crtCallProc             101060cc     LIBCMT:winapinls.obj
 0003:00002100       _heap                      10106100     LIBCMT:undname.obj
 0003:00002118       ___enable_percent_n        10106118     LIBCMT:printf.obj
 0003:00002138       _allocator_arg             10106138     binding.obj
 0003:00002139       _piecewise_construct       10106139     binding.obj
 0004:00000060       $R000000                   10108060     * linker generated manifest res *

 Exports

  ordinal    name

        1    __register_libiconv_
               exported name: _register_libiconv_
